 sql_addon

 Timestamp is 587dacde (Tue Jan 17 13:34:22 2017)

 Preferred load address is 10000000

 Start         Length     Name                   Class
 0001:00000000 00000040H .text$di                CODE
 0001:00000040 0001d5c0H .text$mn                CODE
 0001:0001d600 00000011H .text$yd                CODE
 0002:00000000 000002f8H .idata$5                DATA
 0002:000002f8 00000004H .00cfg                  DATA
 0002:000002fc 00000004H .CRT$XCA                DATA
 0002:00000300 0000000cH .CRT$XCU                DATA
 0002:0000030c 00000004H .CRT$XCZ                DATA
 0002:00000310 00000004H .CRT$XIA                DATA
 0002:00000314 0000000cH .CRT$XIC                DATA
 0002:00000320 00000004H .CRT$XIZ                DATA
 0002:00000324 00000004H .CRT$XPA                DATA
 0002:00000328 00000008H .CRT$XPX                DATA
 0002:00000330 00000004H .CRT$XPXA               DATA
 0002:00000334 00000004H .CRT$XPZ                DATA
 0002:00000338 00000004H .CRT$XTA                DATA
 0002:0000033c 00000004H .CRT$XTZ                DATA
 0002:00000340 000067a4H .rdata                  DATA
 0002:00006ae4 0000021cH .rdata$r                DATA
 0002:00006d00 0000000cH .rdata$sxdata           DATA
 0002:00006d0c 00000358H .rdata$zzzdbg           DATA
 0002:00007064 00000004H .rtc$IAA                DATA
 0002:00007068 00000004H .rtc$IZZ                DATA
 0002:0000706c 00000004H .rtc$TAA                DATA
 0002:00007070 00000008H .rtc$TZZ                DATA
 0002:00007078 00000538H .xdata$x                DATA
 0002:000075b0 0000005cH .edata                  DATA
 0002:0000760c 0000003cH .idata$2                DATA
 0002:00007648 00000014H .idata$3                DATA
 0002:0000765c 000002f8H .idata$4                DATA
 0002:00007954 00001d0aH .idata$6                DATA
 0003:00000000 000007c0H .data                   DATA
 0003:000007c0 000000d8H .data$r                 DATA
 0003:00000898 00000a2cH .bss                    DATA
 0004:00000000 00000090H .gfids$x                DATA
 0004:00000090 00000070H .gfids$y                DATA
 0005:00000000 00000060H .rsrc$01                DATA
 0005:00000060 00000180H .rsrc$02                DATA

  Address         Publics by Value              Rva+Base       Lib:Object

 0000:00000000       ___guard_fids_count        00000000     <absolute>
 0000:00000000       ___guard_longjmp_count     00000000     <absolute>
 0000:00000000       __except_list              00000000     <absolute>
 0000:00000000       ___guard_longjmp_table     00000000     <absolute>
 0000:00000000       ___guard_iat_table         00000000     <absolute>
 0000:00000000       ___guard_iat_count         00000000     <absolute>
 0000:00000000       ___guard_fids_table        00000000     <absolute>
 0000:00000000       ___dynamic_value_reloc_table 00000000     <absolute>
 0000:00000003       ___safe_se_handler_count   00000003     <absolute>
 0000:00000100       ___guard_flags             00000100     <absolute>
 0000:00000000       ___ImageBase               10000000     <linker-defined>
 0001:000001b0       ?Get@Nan@@YA?AV?$MaybeLocal@VValue@v8@@@v8@@V?$Local@VObject@v8@@@3@V?$Local@VValue@v8@@@3@@Z 100011b0 f i database.obj
 0001:000001e0       ?New@?$Factory@VFunctionTemplate@v8@@@imp@Nan@@SA?AV?$Local@VFunctionTemplate@v8@@@v8@@P6AXABV?$FunctionCallbackInfo@VValue@v8@@@3@@ZV?$Local@VValue@v8@@@5@V?$Local@VSignature@v8@@@5@@Z 100011e0 f i database.obj
 0001:00000310       ?New@Nan@@YA?AV?$Local@VInt32@v8@@@v8@@H@Z 10001310 f i database.obj
 0001:00000370       ?ThrowError@Nan@@YAXPBD@Z  10001370 f i database.obj
 0001:000003f0       ?ThrowTypeError@Nan@@YAXPBD@Z 100013f0 f i database.obj
 0001:00000470       ??0Utf8String@Nan@@QAE@V?$Local@VValue@v8@@@v8@@@Z 10001470 f i database.obj
 0001:00000520       ?SetPrototypeMethod@Nan@@YAXV?$Local@VFunctionTemplate@v8@@@v8@@PBDP6AXABV?$FunctionCallbackInfo@VValue@v8@@@1@@Z@Z 10001520 f i database.obj
 0001:000005d0       ?SetAccessor@Nan@@YAXV?$Local@VObjectTemplate@v8@@@v8@@V?$Local@VString@v8@@@3@P6AX1ABV?$PropertyCallbackInfo@VValue@v8@@@1@@ZP6AX1V?$Local@VValue@v8@@@3@ABV?$PropertyCallbackInfo@X@1@@Z4W4AccessControl@3@W4PropertyAttribute@3@V?$Local@VAccessorSignature@v8@@@3@@Z 100015d0 f i database.obj
 0001:000006b0       ?handle@ObjectWrap@Nan@@QBE?AV?$Local@VObject@v8@@@v8@@XZ 100016b0 f i database.obj
 0001:000006f0       ?Wrap@ObjectWrap@Nan@@IAEXV?$Local@VObject@v8@@@v8@@@Z 100016f0 f i database.obj
 0001:000007a0       ?Ref@ObjectWrap@Nan@@MAEXXZ 100017a0 f i database.obj
 0001:000007d0       ?Unref@ObjectWrap@Nan@@MAEXXZ 100017d0 f i database.obj
 0001:00000860       ?WeakCallback@ObjectWrap@Nan@@CAXABV?$WeakCallbackInfo@VObjectWrap@Nan@@@v8@@@Z 10001860 f i database.obj
 0001:000008d0       ??_GObjectWrap@Nan@@UAEPAXI@Z 100018d0 f i database.obj
 0001:000008d0       ??_EObjectWrap@Nan@@UAEPAXI@Z 100018d0 f i * CIL library *:* CIL module *
 0001:00000950       ??0Baton@Database@node_sqlite3@@QAE@PAV12@V?$Local@VFunction@v8@@@v8@@@Z 10001950 f i database.obj
 0001:00000a10       ??0OpenBaton@Database@node_sqlite3@@QAE@PAV12@V?$Local@VFunction@v8@@@v8@@PBDH@Z 10001a10 f i database.obj
 0001:00000aa0       ??0ExecBaton@Database@node_sqlite3@@QAE@PAV12@V?$Local@VFunction@v8@@@v8@@PBD@Z 10001aa0 f i database.obj
 0001:00000b20       ??0LoadExtensionBaton@Database@node_sqlite3@@QAE@PAV12@V?$Local@VFunction@v8@@@v8@@PBD@Z 10001b20 f i database.obj
 0001:00000bb0       ??0Database@node_sqlite3@@IAE@XZ 10001bb0 f i database.obj
 0001:00000c50       ??1Database@node_sqlite3@@MAE@XZ 10001c50 f i database.obj
 0001:00000d30       ??_GBaton@Database@node_sqlite3@@UAEPAXI@Z 10001d30 f i database.obj
 0001:00000d30       ??_EBaton@Database@node_sqlite3@@UAEPAXI@Z 10001d30 f i * CIL library *:* CIL module *
 0001:00000d80       ??_GOpenBaton@Database@node_sqlite3@@UAEPAXI@Z 10001d80 f i database.obj
 0001:00000d80       ??_EOpenBaton@Database@node_sqlite3@@UAEPAXI@Z 10001d80 f i * CIL library *:* CIL module *
 0001:00000df0       ??_EExecBaton@Database@node_sqlite3@@UAEPAXI@Z 10001df0 f i * CIL library *:* CIL module *
 0001:00000df0       ??_GExecBaton@Database@node_sqlite3@@UAEPAXI@Z 10001df0 f i database.obj
 0001:00000e50       ??_ELoadExtensionBaton@Database@node_sqlite3@@UAEPAXI@Z 10001e50 f i * CIL library *:* CIL module *
 0001:00000e50       ??_GLoadExtensionBaton@Database@node_sqlite3@@UAEPAXI@Z 10001e50 f i database.obj
 0001:00000ec0       ??_GDatabase@node_sqlite3@@MAEPAXI@Z 10001ec0 f i database.obj
 0001:00000ec0       ??_EDatabase@node_sqlite3@@MAEPAXI@Z 10001ec0 f i * CIL library *:* CIL module *
 0001:00000ee0       ?Init@Database@node_sqlite3@@SAXV?$Local@VObject@v8@@@v8@@@Z 10001ee0 f   database.obj
 0001:00001120       ?Process@Database@node_sqlite3@@IAEXXZ 10002120 f   database.obj
 0001:00001540       ?Schedule@Database@node_sqlite3@@IAEXP6AXPAUBaton@12@@Z0_N@Z 10002540 f   database.obj
 0001:000018e0       ?New@Database@node_sqlite3@@KAXABV?$FunctionCallbackInfo@VValue@v8@@@Nan@@@Z 100028e0 f   database.obj
 0001:00001bb0       ?Work_Open@Database@node_sqlite3@@KAXPAUuv_work_s@@@Z 10002bb0 f   database.obj
 0001:00001cd0       ?Work_AfterOpen@Database@node_sqlite3@@KAXPAUuv_work_s@@@Z 10002cd0 f   database.obj
 0001:00002180       ?OpenGetter@Database@node_sqlite3@@KAXV?$Local@VString@v8@@@v8@@ABV?$PropertyCallbackInfo@VValue@v8@@@Nan@@@Z 10003180 f   database.obj
 0001:000021c0       ?Close@Database@node_sqlite3@@KAXABV?$FunctionCallbackInfo@VValue@v8@@@Nan@@@Z 100031c0 f   database.obj
 0001:00002290       ?Work_BeginClose@Database@node_sqlite3@@KAXPAUBaton@12@@Z 10003290 f   database.obj
 0001:000023b0       ?Work_Close@Database@node_sqlite3@@KAXPAUuv_work_s@@@Z 100033b0 f   database.obj
 0001:00002470       ?Work_AfterClose@Database@node_sqlite3@@KAXPAUuv_work_s@@@Z 10003470 f   database.obj
 0001:00002920       ?Serialize@Database@node_sqlite3@@KAXABV?$FunctionCallbackInfo@VValue@v8@@@Nan@@@Z 10003920 f   database.obj
 0001:00002a20       ?Parallelize@Database@node_sqlite3@@KAXABV?$FunctionCallbackInfo@VValue@v8@@@Nan@@@Z 10003a20 f   database.obj
 0001:00002b20       ?Configure@Database@node_sqlite3@@KAXABV?$FunctionCallbackInfo@VValue@v8@@@Nan@@@Z 10003b20 f   database.obj
 0001:00002e90       ?Interrupt@Database@node_sqlite3@@KAXABV?$FunctionCallbackInfo@VValue@v8@@@Nan@@@Z 10003e90 f   database.obj
 0001:00002ef0       ?SetBusyTimeout@Database@node_sqlite3@@KAXPAUBaton@12@@Z 10003ef0 f   database.obj
 0001:00002f60       ?RegisterTraceCallback@Database@node_sqlite3@@KAXPAUBaton@12@@Z 10003f60 f   database.obj
 0001:00003070       ?TraceCallback@Database@node_sqlite3@@KAXPAXPBD@Z 10004070 f   database.obj
 0001:000030d0       ?TraceCallback@Database@node_sqlite3@@KAXPAV12@PAV?$basic_string@DU?$char_traits@D@std@@V?$allocator@D@2@@std@@@Z 100040d0 f   database.obj
 0001:00003230       ?RegisterProfileCallback@Database@node_sqlite3@@KAXPAUBaton@12@@Z 10004230 f   database.obj
 0001:00003340       ?ProfileCallback@Database@node_sqlite3@@KAXPAXPBD_K@Z 10004340 f   database.obj
 0001:00003410       ?ProfileCallback@Database@node_sqlite3@@KAXPAV12@PAUProfileInfo@12@@Z 10004410 f   database.obj
 0001:000035d0       ?Exec@Database@node_sqlite3@@KAXABV?$FunctionCallbackInfo@VValue@v8@@@Nan@@@Z 100045d0 f   database.obj
 0001:00003770       ?Work_BeginExec@Database@node_sqlite3@@KAXPAUBaton@12@@Z 10004770 f   database.obj
 0001:00003830       ?Work_Exec@Database@node_sqlite3@@KAXPAUuv_work_s@@@Z 10004830 f   database.obj
 0001:00003900       ?Work_AfterLoadExtension@Database@node_sqlite3@@KAXPAUuv_work_s@@@Z 10004900 f   database.obj
 0001:00003900       ?Work_AfterExec@Database@node_sqlite3@@KAXPAUuv_work_s@@@Z 10004900 f   database.obj
 0001:00003d10       ?Wait@Database@node_sqlite3@@KAXABV?$FunctionCallbackInfo@VValue@v8@@@Nan@@@Z 10004d10 f   database.obj
 0001:00003de0       ?Work_Wait@Database@node_sqlite3@@KAXPAUBaton@12@@Z 10004de0 f   database.obj
 0001:00003f10       ?LoadExtension@Database@node_sqlite3@@KAXABV?$FunctionCallbackInfo@VValue@v8@@@Nan@@@Z 10004f10 f   database.obj
 0001:000040b0       ?Work_BeginLoadExtension@Database@node_sqlite3@@KAXPAUBaton@12@@Z 100050b0 f   database.obj
 0001:00004170       ?Work_LoadExtension@Database@node_sqlite3@@KAXPAUuv_work_s@@@Z 10005170 f   database.obj
 0001:00004250       ??A?$FunctionCallbackInfo@VValue@v8@@@Nan@@QBE?AV?$Local@VValue@v8@@@v8@@H@Z 10005250 f i database.obj
 0001:00004290       ??1?$basic_string@DU?$char_traits@D@std@@V?$allocator@D@2@@std@@QAE@XZ 10005290 f i database.obj
 0001:00004300       ??4?$basic_string@DU?$char_traits@D@std@@V?$allocator@D@2@@std@@QAEAAV01@$$QAV01@@Z 10005300 f i database.obj
 0001:000043a0       ??0?$basic_string@DU?$char_traits@D@std@@V?$allocator@D@2@@std@@QAE@PBD@Z 100053a0 f i database.obj
 0001:000043f0       ?_Tidy@?$deque@PAUCall@Statement@node_sqlite3@@V?$allocator@PAUCall@Statement@node_sqlite3@@@std@@@std@@IAEXXZ 100053f0 f i statement.obj
 0001:000043f0       ?_Tidy@?$deque@PAUCall@Database@node_sqlite3@@V?$allocator@PAUCall@Database@node_sqlite3@@@std@@@std@@IAEXXZ 100053f0 f i database.obj
 0001:000044b0       ?push_back@?$deque@PAUCall@Statement@node_sqlite3@@V?$allocator@PAUCall@Statement@node_sqlite3@@@std@@@std@@QAEX$$QAPAUCall@Statement@node_sqlite3@@@Z 100054b0 f i statement.obj
 0001:000044b0       ?push_back@?$deque@PAUCall@Database@node_sqlite3@@V?$allocator@PAUCall@Database@node_sqlite3@@@std@@@std@@QAEX$$QAPAUCall@Database@node_sqlite3@@@Z 100054b0 f i database.obj
 0001:00004540       ?add@?$Async@UProfileInfo@Database@node_sqlite3@@V23@@@QAEXPAUProfileInfo@Database@node_sqlite3@@@Z 10005540 f i database.obj
 0001:00004540       ?add@?$Async@V?$basic_string@DU?$char_traits@D@std@@V?$allocator@D@2@@std@@VDatabase@node_sqlite3@@@@QAEXPAV?$basic_string@DU?$char_traits@D@std@@V?$allocator@D@2@@std@@@Z 10005540 f i database.obj
 0001:000045d0       ?close@?$Async@V?$basic_string@DU?$char_traits@D@std@@V?$allocator@D@2@@std@@VDatabase@node_sqlite3@@@@SAXPAUuv_handle_s@@@Z 100055d0 f i database.obj
 0001:000045d0       ?close@?$Async@UProfileInfo@Database@node_sqlite3@@V23@@@SAXPAUuv_handle_s@@@Z 100055d0 f i database.obj
 0001:00004630       ?listener@?$Async@UProfileInfo@Database@node_sqlite3@@V23@@@SAXPAUuv_async_s@@H@Z 10005630 f i database.obj
 0001:00004630       ?listener@?$Async@V?$basic_string@DU?$char_traits@D@std@@V?$allocator@D@2@@std@@VDatabase@node_sqlite3@@@@SAXPAUuv_async_s@@H@Z 10005630 f i database.obj
 0001:00004730       ?assign@?$basic_string@DU?$char_traits@D@std@@V?$allocator@D@2@@std@@QAEAAV12@PBDI@Z 10005730 f i database.obj
 0001:00004830       ?assign@?$basic_string@DU?$char_traits@D@std@@V?$allocator@D@2@@std@@QAEAAV12@ABV12@II@Z 10005830 f i database.obj
 0001:00004940       ?_Assign_rv@?$basic_string@DU?$char_traits@D@std@@V?$allocator@D@2@@std@@QAEX$$QAV12@@Z 10005940 f i database.obj
 0001:000049b0       ?_Tidy@?$vector@PAV?$vector@PAUField@Values@node_sqlite3@@V?$allocator@PAUField@Values@node_sqlite3@@@std@@@std@@V?$allocator@PAV?$vector@PAUField@Values@node_sqlite3@@V?$allocator@PAUField@Values@node_sqlite3@@@std@@@std@@@2@@std@@IAEXXZ 100059b0 f i statement.obj
 0001:000049b0       ?_Tidy@?$vector@PAUField@Values@node_sqlite3@@V?$allocator@PAUField@Values@node_sqlite3@@@std@@@std@@IAEXXZ 100059b0 f i statement.obj
 0001:000049b0       ?_Tidy@?$vector@PAV?$basic_string@DU?$char_traits@D@std@@V?$allocator@D@2@@std@@V?$allocator@PAV?$basic_string@DU?$char_traits@D@std@@V?$allocator@D@2@@std@@@2@@std@@IAEXXZ 100059b0 f i database.obj
 0001:000049b0       ?_Tidy@?$vector@PAUProfileInfo@Database@node_sqlite3@@V?$allocator@PAUProfileInfo@Database@node_sqlite3@@@std@@@std@@IAEXXZ 100059b0 f i database.obj
 0001:00004a30       ?deallocate@?$_Wrap_alloc@V?$allocator@PAPAUCall@Statement@node_sqlite3@@@std@@@std@@QAEXPAPAPAUCall@Statement@node_sqlite3@@I@Z 10005a30 f i statement.obj
 0001:00004a30       ?deallocate@?$_Wrap_alloc@V?$allocator@PAPAUCall@Database@node_sqlite3@@@std@@@std@@QAEXPAPAPAUCall@Database@node_sqlite3@@I@Z 10005a30 f i database.obj
 0001:00004a90       ?_Growmap@?$deque@PAUCall@Statement@node_sqlite3@@V?$allocator@PAUCall@Statement@node_sqlite3@@@std@@@std@@IAEXI@Z 10005a90 f i statement.obj
 0001:00004a90       ?_Growmap@?$deque@PAUCall@Database@node_sqlite3@@V?$allocator@PAUCall@Database@node_sqlite3@@@std@@@std@@IAEXI@Z 10005a90 f i database.obj
 0001:00004c10       ?erase@?$basic_string@DU?$char_traits@D@std@@V?$allocator@D@2@@std@@QAEAAV12@II@Z 10005c10 f i database.obj
 0001:00004cb0       ?_Reserve@?$vector@PAUProfileInfo@Database@node_sqlite3@@V?$allocator@PAUProfileInfo@Database@node_sqlite3@@@std@@@std@@IAEXI@Z 10005cb0 f i database.obj
 0001:00004cb0       ?_Reserve@?$vector@PAUField@Values@node_sqlite3@@V?$allocator@PAUField@Values@node_sqlite3@@@std@@@std@@IAEXI@Z 10005cb0 f i statement.obj
 0001:00004cb0       ?_Reserve@?$vector@PAV?$basic_string@DU?$char_traits@D@std@@V?$allocator@D@2@@std@@V?$allocator@PAV?$basic_string@DU?$char_traits@D@std@@V?$allocator@D@2@@std@@@2@@std@@IAEXI@Z 10005cb0 f i database.obj
 0001:00004d10       ?_Copy@?$basic_string@DU?$char_traits@D@std@@V?$allocator@D@2@@std@@QAEXII@Z 10005d10 f i database.obj
 0001:00004e40       ?_Reallocate@?$vector@PAUField@Values@node_sqlite3@@V?$allocator@PAUField@Values@node_sqlite3@@@std@@@std@@IAEXI@Z 10005e40 f i statement.obj
 0001:00004e40       ?_Reallocate@?$vector@PAV?$vector@PAUField@Values@node_sqlite3@@V?$allocator@PAUField@Values@node_sqlite3@@@std@@@std@@V?$allocator@PAV?$vector@PAUField@Values@node_sqlite3@@V?$allocator@PAUField@Values@node_sqlite3@@@std@@@std@@@2@@std@@IAEXI@Z 10005e40 f i statement.obj
 0001:00004e40       ?_Reallocate@?$vector@PAV?$basic_string@DU?$char_traits@D@std@@V?$allocator@D@2@@std@@V?$allocator@PAV?$basic_string@DU?$char_traits@D@std@@V?$allocator@D@2@@std@@@2@@std@@IAEXI@Z 10005e40 f i database.obj
 0001:00004e40       ?_Reallocate@?$vector@PAUProfileInfo@Database@node_sqlite3@@V?$allocator@PAUProfileInfo@Database@node_sqlite3@@@std@@@std@@IAEXI@Z 10005e40 f i database.obj
 0001:00004f30       ??$To@H@Nan@@YA?AV?$Maybe@H@v8@@V?$Local@VValue@v8@@@2@@Z 10005f30 f i database.obj
 0001:00004f60       ??$Unwrap@VStatement@node_sqlite3@@@ObjectWrap@Nan@@SAPAVStatement@node_sqlite3@@V?$Local@VObject@v8@@@v8@@@Z 10005f60 f i statement.obj
 0001:00004f60       ??$Unwrap@VDatabase@node_sqlite3@@@ObjectWrap@Nan@@SAPAVDatabase@node_sqlite3@@V?$Local@VObject@v8@@@v8@@@Z 10005f60 f i database.obj
 0001:000063d0       ?sqlite_code_string@@YAPBDH@Z 100073d0 f   node_sqlite3.obj
 0001:00006590       ??$New@VInteger@v8@@H@Nan@@YA?AV?$Local@VInteger@v8@@@v8@@H@Z 10007590 f i node_sqlite3.obj
 0001:000065f0       ?Get@Nan@@YA?AV?$MaybeLocal@VValue@v8@@@v8@@V?$Local@VObject@v8@@@3@I@Z 100075f0 f i statement.obj
 0001:00006620       ?GetPropertyNames@Nan@@YA?AV?$MaybeLocal@VArray@v8@@@v8@@V?$Local@VObject@v8@@@3@@Z 10007620 f i statement.obj
 0001:00006650       ?HasInstance@Database@node_sqlite3@@SA_NV?$Local@VValue@v8@@@v8@@@Z 10007650 f i statement.obj
 0001:000066d0       ??0Field@Values@node_sqlite3@@QAE@GG@Z 100076d0 f i statement.obj
 0001:00006700       ??0Field@Values@node_sqlite3@@QAE@PBDG@Z 10007700 f i statement.obj
 0001:00006760       ??0Baton@Statement@node_sqlite3@@QAE@PAV12@V?$Local@VFunction@v8@@@v8@@@Z 10007760 f i statement.obj
 0001:00006810       ??1Baton@Statement@node_sqlite3@@UAE@XZ 10007810 f i statement.obj
 0001:00006950       ??0PrepareBaton@Statement@node_sqlite3@@QAE@PAVDatabase@2@V?$Local@VFunction@v8@@@v8@@PAV12@@Z 10007950 f i statement.obj
 0001:000069e0       ??1PrepareBaton@Statement@node_sqlite3@@UAE@XZ 100079e0 f i statement.obj
 0001:00006a50       ??0Async@Statement@node_sqlite3@@QAE@PAV12@P6AXPAUuv_async_s@@@Z@Z 10007a50 f i statement.obj
 0001:00006b10       ??0Statement@node_sqlite3@@QAE@PAVDatabase@1@@Z 10007b10 f i statement.obj
 0001:00006bf0       ??1Statement@node_sqlite3@@UAE@XZ 10007bf0 f i statement.obj
 0001:00006cb0       ??_GBaton@Statement@node_sqlite3@@UAEPAXI@Z 10007cb0 f i statement.obj
 0001:00006cb0       ??_EBaton@Statement@node_sqlite3@@UAEPAXI@Z 10007cb0 f i * CIL library *:* CIL module *
 0001:00006cd0       ??_GRowBaton@Statement@node_sqlite3@@UAEPAXI@Z 10007cd0 f i statement.obj
 0001:00006cd0       ??_GRowsBaton@Statement@node_sqlite3@@UAEPAXI@Z 10007cd0 f i statement.obj
 0001:00006cd0       ??_ERowBaton@Statement@node_sqlite3@@UAEPAXI@Z 10007cd0 f i * CIL library *:* CIL module *
 0001:00006cd0       ??_ERowsBaton@Statement@node_sqlite3@@UAEPAXI@Z 10007cd0 f i * CIL library *:* CIL module *
 0001:00006d00       ??_GRunBaton@Statement@node_sqlite3@@UAEPAXI@Z 10007d00 f i statement.obj
 0001:00006d00       ??_ERunBaton@Statement@node_sqlite3@@UAEPAXI@Z 10007d00 f i * CIL library *:* CIL module *
 0001:00006d30       ??_EEachBaton@Statement@node_sqlite3@@UAEPAXI@Z 10007d30 f i * CIL library *:* CIL module *
 0001:00006d30       ??_GEachBaton@Statement@node_sqlite3@@UAEPAXI@Z 10007d30 f i statement.obj
 0001:00006d70       ??_EPrepareBaton@Statement@node_sqlite3@@UAEPAXI@Z 10007d70 f i * CIL library *:* CIL module *
 0001:00006d70       ??_GPrepareBaton@Statement@node_sqlite3@@UAEPAXI@Z 10007d70 f i statement.obj
 0001:00006da0       ??_GStatement@node_sqlite3@@UAEPAXI@Z 10007da0 f i statement.obj
 0001:00006da0       ??_EStatement@node_sqlite3@@UAEPAXI@Z 10007da0 f i * CIL library *:* CIL module *
 0001:00006dc0       ?Init@Statement@node_sqlite3@@SAXV?$Local@VObject@v8@@@v8@@@Z 10007dc0 f   statement.obj
 0001:00006fb0       ?Process@Statement@node_sqlite3@@IAEXXZ 10007fb0 f   statement.obj
 0001:00007030       ?Schedule@Statement@node_sqlite3@@IAEXP6AXPAUBaton@12@@Z0@Z 10008030 f   statement.obj
 0001:000070c0       ?New@Statement@node_sqlite3@@SAXABV?$FunctionCallbackInfo@VValue@v8@@@Nan@@@Z 100080c0 f   statement.obj
 0001:00007380       ?Work_BeginPrepare@Statement@node_sqlite3@@KAXPAUBaton@Database@2@@Z 10008380 f   statement.obj
 0001:000073e0       ?Work_Prepare@Statement@node_sqlite3@@KAXPAUuv_work_s@@@Z 100083e0 f   statement.obj
 0001:000074d0       ?Work_AfterPrepare@Statement@node_sqlite3@@KAXPAUuv_work_s@@@Z 100084d0 f   statement.obj
 0001:00007620       ?Bind@Statement@node_sqlite3@@IAE_NABV?$vector@PAUField@Values@node_sqlite3@@V?$allocator@PAUField@Values@node_sqlite3@@@std@@@std@@@Z 10008620 f   statement.obj
 0001:00007800       ?Bind@Statement@node_sqlite3@@SAXABV?$FunctionCallbackInfo@VValue@v8@@@Nan@@@Z 10008800 f   statement.obj
 0001:00007860       ?Work_BeginBind@Statement@node_sqlite3@@SAXPAUBaton@12@@Z 10008860 f   statement.obj
 0001:00007950       ?Work_Bind@Statement@node_sqlite3@@SAXPAUuv_work_s@@@Z 10008950 f   statement.obj
 0001:00007990       ?Work_AfterBind@Statement@node_sqlite3@@SAXPAUuv_work_s@@@Z 10008990 f   statement.obj
 0001:00007aa0       ?Get@Statement@node_sqlite3@@SAXABV?$FunctionCallbackInfo@VValue@v8@@@Nan@@@Z 10008aa0 f   statement.obj
 0001:00007b00       ?Work_BeginGet@Statement@node_sqlite3@@SAXPAUBaton@12@@Z 10008b00 f   statement.obj
 0001:00007bf0       ?Work_Get@Statement@node_sqlite3@@SAXPAUuv_work_s@@@Z 10008bf0 f   statement.obj
 0001:00007cd0       ?Work_AfterGet@Statement@node_sqlite3@@SAXPAUuv_work_s@@@Z 10008cd0 f   statement.obj
 0001:00007e50       ?Run@Statement@node_sqlite3@@SAXABV?$FunctionCallbackInfo@VValue@v8@@@Nan@@@Z 10008e50 f   statement.obj
 0001:00007eb0       ?Work_BeginRun@Statement@node_sqlite3@@SAXPAUBaton@12@@Z 10008eb0 f   statement.obj
 0001:00007fa0       ?Work_Run@Statement@node_sqlite3@@SAXPAUuv_work_s@@@Z 10008fa0 f   statement.obj
 0001:00008090       ?Work_AfterRun@Statement@node_sqlite3@@SAXPAUuv_work_s@@@Z 10009090 f   statement.obj
 0001:00008310       ?All@Statement@node_sqlite3@@SAXABV?$FunctionCallbackInfo@VValue@v8@@@Nan@@@Z 10009310 f   statement.obj
 0001:00008370       ?Work_BeginAll@Statement@node_sqlite3@@SAXPAUBaton@12@@Z 10009370 f   statement.obj
 0001:00008460       ?Work_All@Statement@node_sqlite3@@SAXPAUuv_work_s@@@Z 10009460 f   statement.obj
 0001:000086b0       ?Work_AfterAll@Statement@node_sqlite3@@SAXPAUuv_work_s@@@Z 100096b0 f   statement.obj
 0001:00008900       ?Each@Statement@node_sqlite3@@SAXABV?$FunctionCallbackInfo@VValue@v8@@@Nan@@@Z 10009900 f   statement.obj
 0001:00008a30       ?Work_BeginEach@Statement@node_sqlite3@@SAXPAUBaton@12@@Z 10009a30 f   statement.obj
 0001:00008bb0       ?Work_Each@Statement@node_sqlite3@@SAXPAUuv_work_s@@@Z 10009bb0 f   statement.obj
 0001:00008e30       ?CloseCallback@Statement@node_sqlite3@@KAXPAUuv_handle_s@@@Z 10009e30 f   statement.obj
 0001:00008e80       ??_GAsync@Statement@node_sqlite3@@QAEPAXI@Z 10009e80 f i statement.obj
 0001:00008ef0       ?AsyncEach@Statement@node_sqlite3@@KAXPAUuv_async_s@@H@Z 10009ef0 f   statement.obj
 0001:00009270       ?Work_AfterEach@Statement@node_sqlite3@@SAXPAUuv_work_s@@@Z 1000a270 f   statement.obj
 0001:00009310       ?Reset@Statement@node_sqlite3@@SAXABV?$FunctionCallbackInfo@VValue@v8@@@Nan@@@Z 1000a310 f   statement.obj
 0001:000093e0       ?Work_BeginReset@Statement@node_sqlite3@@SAXPAUBaton@12@@Z 1000a3e0 f   statement.obj
 0001:000094d0       ?Work_Reset@Statement@node_sqlite3@@SAXPAUuv_work_s@@@Z 1000a4d0 f   statement.obj
 0001:000094f0       ?Work_AfterReset@Statement@node_sqlite3@@SAXPAUuv_work_s@@@Z 1000a4f0 f   statement.obj
 0001:000095f0       ?RowToJS@Statement@node_sqlite3@@KA?AV?$Local@VObject@v8@@@v8@@PAV?$vector@PAUField@Values@node_sqlite3@@V?$allocator@PAUField@Values@node_sqlite3@@@std@@@std@@@Z 1000a5f0 f   statement.obj
 0001:00009880       ?GetRow@Statement@node_sqlite3@@KAXPAV?$vector@PAUField@Values@node_sqlite3@@V?$allocator@PAUField@Values@node_sqlite3@@@std@@@std@@PAUsqlite3_stmt@@@Z 1000a880 f   statement.obj
 0001:00009b00       ?Finalize@Statement@node_sqlite3@@SAXABV?$FunctionCallbackInfo@VValue@v8@@@Nan@@@Z 1000ab00 f   statement.obj
 0001:00009bf0       ?Finalize@Statement@node_sqlite3@@KAXPAUBaton@12@@Z 1000abf0 f   statement.obj
 0001:00009cd0       ?Finalize@Statement@node_sqlite3@@IAEXXZ 1000acd0 f   statement.obj
 0001:00009d20       ?CleanQueue@Statement@node_sqlite3@@IAEXXZ 1000ad20 f   statement.obj
 0001:0000a140       ?push_back@?$vector@PAUField@Values@node_sqlite3@@V?$allocator@PAUField@Values@node_sqlite3@@@std@@@std@@QAEX$$QAPAUField@Values@node_sqlite3@@@Z 1000b140 f i statement.obj
 0001:0000a1a0       ??$To@VObject@v8@@@Nan@@YA?AV?$MaybeLocal@VObject@v8@@@v8@@V?$Local@VValue@v8@@@2@@Z 1000b1a0 f i statement.obj
 0001:0000a1d0       ??$Error@UPrepareBaton@Statement@node_sqlite3@@@Statement@node_sqlite3@@KAXPAUPrepareBaton@01@@Z 1000b1d0 f i statement.obj
 0001:0000a550       ??$Bind@UBaton@Statement@node_sqlite3@@@Statement@node_sqlite3@@IAEPAUBaton@01@ABV?$FunctionCallbackInfo@VValue@v8@@@Nan@@HH@Z 1000b550 f i statement.obj
 0001:0000a9d0       ??$Error@URowsBaton@Statement@node_sqlite3@@@Statement@node_sqlite3@@KAXPAURowsBaton@01@@Z 1000b9d0 f i statement.obj
 0001:0000a9d0       ??$Error@UBaton@Statement@node_sqlite3@@@Statement@node_sqlite3@@KAXPAUBaton@01@@Z 1000b9d0 f i statement.obj
 0001:0000a9d0       ??$Error@UEachBaton@Statement@node_sqlite3@@@Statement@node_sqlite3@@KAXPAUEachBaton@01@@Z 1000b9d0 f i statement.obj
 0001:0000a9d0       ??$Error@URowBaton@Statement@node_sqlite3@@@Statement@node_sqlite3@@KAXPAURowBaton@01@@Z 1000b9d0 f i statement.obj
 0001:0000a9d0       ??$Error@URunBaton@Statement@node_sqlite3@@@Statement@node_sqlite3@@KAXPAURunBaton@01@@Z 1000b9d0 f i statement.obj
 0001:0000ad50       ??$Bind@URowBaton@Statement@node_sqlite3@@@Statement@node_sqlite3@@IAEPAURowBaton@01@ABV?$FunctionCallbackInfo@VValue@v8@@@Nan@@HH@Z 1000bd50 f i statement.obj
 0001:0000ad50       ??$Bind@URowsBaton@Statement@node_sqlite3@@@Statement@node_sqlite3@@IAEPAURowsBaton@01@ABV?$FunctionCallbackInfo@VValue@v8@@@Nan@@HH@Z 1000bd50 f i statement.obj
 0001:0000b210       ??$Bind@URunBaton@Statement@node_sqlite3@@@Statement@node_sqlite3@@IAEPAURunBaton@01@ABV?$FunctionCallbackInfo@VValue@v8@@@Nan@@HH@Z 1000c210 f i statement.obj
 0001:0000b6d0       ??$Bind@UEachBaton@Statement@node_sqlite3@@@Statement@node_sqlite3@@IAEPAUEachBaton@01@ABV?$FunctionCallbackInfo@VValue@v8@@@Nan@@HH@Z 1000c6d0 f i statement.obj
 0001:0000bb80       ??$?0PAD@Text@Values@node_sqlite3@@QAE@PADIPBD@Z 1000cb80 f i statement.obj
 0001:0000bb80       ??$?0PBD@Text@Values@node_sqlite3@@QAE@PBDI0@Z 1000cb80 f i statement.obj
 0001:0000bbf0       ??$?0PBD@Blob@Values@node_sqlite3@@QAE@PBDIPBX@Z 1000cbf0 f i statement.obj
 0001:0000bbf0       ??$?0PAD@Blob@Values@node_sqlite3@@QAE@PADIPBX@Z 1000cbf0 f i statement.obj
 0001:0000bc60       ??$BindParameter@H@Statement@node_sqlite3@@IAEPAUField@Values@1@V?$Local@VValue@v8@@@v8@@H@Z 1000cc60 f i statement.obj
 0001:0000bff0       ??$BindParameter@PAD@Statement@node_sqlite3@@IAEPAUField@Values@1@V?$Local@VValue@v8@@@v8@@PAD@Z 1000cff0 f i statement.obj
 0001:0000c2d0       ??$?0H@Integer@Values@node_sqlite3@@QAE@H_J@Z 1000d2d0 f i statement.obj
 0001:0000c310       ??$To@N@Nan@@YA?AV?$Maybe@N@v8@@V?$Local@VValue@v8@@@2@@Z 1000d310 f i statement.obj
 0001:0000c340       ??$To@_N@Nan@@YA?AV?$Maybe@_N@v8@@V?$Local@VValue@v8@@@2@@Z 1000d340 f i statement.obj
 0001:0000c370       ??$?0H@Blob@Values@node_sqlite3@@QAE@HIPBX@Z 1000d370 f i statement.obj
 0001:0000c3c0       ??$?0PAD@Integer@Values@node_sqlite3@@QAE@PAD_J@Z 1000d3c0 f i statement.obj
 0001:0000c420       ??$?0PAD@Float@Values@node_sqlite3@@QAE@PADN@Z 1000d420 f i statement.obj
 0001:0000c481       ??0bad_alloc@std@@QAE@ABV01@@Z 1000d481 f i libcpmt:xthrow.obj
 0001:0000c49c       ??0bad_alloc@std@@QAE@XZ   1000d49c f i libcpmt:xthrow.obj
 0001:0000c4b4       ??0exception@std@@QAE@ABV01@@Z 1000d4b4 f i libcpmt:xthrow.obj
 0001:0000c4e0       ??0exception@std@@QAE@QBD@Z 1000d4e0 f i libcpmt:xthrow.obj
 0001:0000c517       ??0length_error@std@@QAE@ABV01@@Z 1000d517 f i libcpmt:xthrow.obj
 0001:0000c532       ??0length_error@std@@QAE@PBD@Z 1000d532 f i libcpmt:xthrow.obj
 0001:0000c553       ??0logic_error@std@@QAE@ABV01@@Z 1000d553 f i libcpmt:xthrow.obj
 0001:0000c56e       ??0out_of_range@std@@QAE@ABV01@@Z 1000d56e f i libcpmt:xthrow.obj
 0001:0000c589       ??0out_of_range@std@@QAE@PBD@Z 1000d589 f i libcpmt:xthrow.obj
 0001:0000c5aa       ??1length_error@std@@UAE@XZ 1000d5aa f i libcpmt:xthrow.obj
 0001:0000c5aa       ??1bad_array_new_length@std@@UAE@XZ 1000d5aa f i LIBCMT:throw_bad_alloc.obj
 0001:0000c5aa       ??1out_of_range@std@@UAE@XZ 1000d5aa f i libcpmt:xthrow.obj
 0001:0000c5aa       ??1bad_alloc@std@@UAE@XZ   1000d5aa f i libcpmt:xthrow.obj
 0001:0000c5bb       ??_Elength_error@std@@UAEPAXI@Z 1000d5bb f i libcpmt:xthrow.obj
 0001:0000c5bb       ??_Eexception@std@@UAEPAXI@Z 1000d5bb f i libcpmt:xthrow.obj
 0001:0000c5bb       ??_Gbad_array_new_length@std@@UAEPAXI@Z 1000d5bb f i LIBCMT:throw_bad_alloc.obj
 0001:0000c5bb       ??_Glogic_error@std@@UAEPAXI@Z 1000d5bb f i libcpmt:xthrow.obj
 0001:0000c5bb       ??_Gbad_alloc@std@@UAEPAXI@Z 1000d5bb f i libcpmt:xthrow.obj
 0001:0000c5bb       ??_Ebad_array_new_length@std@@UAEPAXI@Z 1000d5bb f i LIBCMT:throw_bad_alloc.obj
 0001:0000c5bb       ??_Elogic_error@std@@UAEPAXI@Z 1000d5bb f i libcpmt:xthrow.obj
 0001:0000c5bb       ??_Ebad_alloc@std@@UAEPAXI@Z 1000d5bb f i libcpmt:xthrow.obj
 0001:0000c5bb       ??_Eout_of_range@std@@UAEPAXI@Z 1000d5bb f i libcpmt:xthrow.obj
 0001:0000c5bb       ??_Gexception@std@@UAEPAXI@Z 1000d5bb f i libcpmt:xthrow.obj
 0001:0000c5bb       ??_Gout_of_range@std@@UAEPAXI@Z 1000d5bb f i libcpmt:xthrow.obj
 0001:0000c5bb       ??_Glength_error@std@@UAEPAXI@Z 1000d5bb f i libcpmt:xthrow.obj
 0001:0000c5e8       ?_Xbad_alloc@std@@YAXXZ    1000d5e8 f   libcpmt:xthrow.obj
 0001:0000c5e8       ?__scrt_throw_std_bad_alloc@@YAXXZ 1000d5e8 f   LIBCMT:throw_bad_alloc.obj
 0001:0000c605       ?_Xlength_error@std@@YAXPBD@Z 1000d605 f   libcpmt:xthrow.obj
 0001:0000c625       ?_Xout_of_range@std@@YAXPBD@Z 1000d625 f   libcpmt:xthrow.obj
 0001:0000c645       ?what@exception@std@@UBEPBDXZ 1000d645 f i libcpmt:xthrow.obj
 0001:0000c652       @__security_check_cookie@4 1000d652 f   LIBCMT:_secchk_.obj
 0001:0000c663       ??2@YAPAXI@Z               1000d663 f   LIBCMT:new_scalar.obj
 0001:0000c696       ??$__crt_fast_encode_pointer@PAP6AXXZ@@YAPAP6AXXZQAP6AXXZ@Z 1000d696 f i LIBCMT:utility.obj
 0001:0000c696       ??$__crt_fast_encode_pointer@PAX@@YAPAXQAX@Z 1000d696 f i libvcruntime:winapi_downlevel.obj
 0001:0000c6f7       ___scrt_acquire_startup_lock 1000d6f7 f   LIBCMT:utility.obj
 0001:0000c72c       ___scrt_dllmain_after_initialize_c 1000d72c f   LIBCMT:utility.obj
 0001:0000c757       ___scrt_dllmain_before_initialize_c 1000d757 f   LIBCMT:utility.obj
 0001:0000c765       ___scrt_dllmain_crt_thread_attach 1000d765 f   LIBCMT:utility.obj
 0001:0000c784       ___scrt_dllmain_crt_thread_detach 1000d784 f   LIBCMT:utility.obj
 0001:0000c791       ___scrt_dllmain_exception_filter 1000d791 f   LIBCMT:utility.obj
 0001:0000c7c4       ___scrt_dllmain_uninitialize_c 1000d7c4 f   LIBCMT:utility.obj
 0001:0000c7e7       ___scrt_dllmain_uninitialize_critical 1000d7e7 f   LIBCMT:utility.obj
 0001:0000c7f4       ___scrt_initialize_crt     1000d7f4 f   LIBCMT:utility.obj
 0001:0000c82d       ___scrt_initialize_onexit_tables 1000d82d f   LIBCMT:utility.obj
 0001:0000c8c4       ___scrt_is_nonwritable_in_current_image 1000d8c4 f   LIBCMT:utility.obj
 0001:0000c94e       ___scrt_release_startup_lock 1000d94e f   LIBCMT:utility.obj
 0001:0000c96b       ___scrt_uninitialize_crt   1000d96b f   LIBCMT:utility.obj
 0001:0000c993       __onexit                   1000d993 f   LIBCMT:utility.obj
 0001:0000c9ce       _atexit                    1000d9ce f   LIBCMT:utility.obj
 0001:0000c9e3       ??3@YAXPAX@Z               1000d9e3 f   LIBCMT:delete_scalar.obj
 0001:0000c9e8       ??3@YAXPAXI@Z              1000d9e8 f   LIBCMT:delete_scalar_size.obj
 0001:0000ccfe       __DllMainCRTStartup@12     1000dcfe f   LIBCMT:dll_dllmain.obj
 0001:0000cd21       ??_Gtype_info@@UAEPAXI@Z   1000dd21 f i LIBCMT:std_type_info_static.obj
 0001:0000cd21       ??_Etype_info@@UAEPAXI@Z   1000dd21 f i LIBCMT:std_type_info_static.obj
 0001:0000cd44       ___raise_securityfailure   1000dd44 f   LIBCMT:gs_report.obj
 0001:0000cd6c       ___report_gsfailure        1000dd6c f   LIBCMT:gs_report.obj
 0001:0000ce67       ??0bad_array_new_length@std@@QAE@ABV01@@Z 1000de67 f i LIBCMT:throw_bad_alloc.obj
 0001:0000ce82       ??0bad_array_new_length@std@@QAE@XZ 1000de82 f i LIBCMT:throw_bad_alloc.obj
 0001:0000ce9a       ?__scrt_throw_std_bad_array_new_length@@YAXXZ 1000de9a f   LIBCMT:throw_bad_alloc.obj
 0001:0000ceb7       ___isa_available_init      1000deb7 f   LIBCMT:_cpu_disp_.obj
 0001:0000d051       __get_startup_argv_mode    1000e051 f   LIBCMT:argv_mode.obj
 0001:0000d055       ___scrt_is_ucrt_dll_in_use 1000e055 f   LIBCMT:ucrt_detection.obj
 0001:0000d061       ___scrt_fastfail           1000e061 f   LIBCMT:utility_desktop.obj
 0001:0000d17c       __crt_debugger_hook        1000e17c f   LIBCMT:utility_desktop.obj
 0001:0000d184       @_guard_check_icall@4      1000e184 f i LIBCMT:checkcfg.obj
 0001:0000d190       __SEH_prolog4              1000e190 f   LIBCMT:_sehprolg4_.obj
 0001:0000d1d6       __SEH_epilog4              1000e1d6 f   LIBCMT:_sehprolg4_.obj
 0001:0000d1eb       ___security_init_cookie    1000e1eb f   LIBCMT:gs_support.obj
 0001:0000d287       _DllMain@12                1000e287 f   LIBCMT:dll_dllmain_stub.obj
 0001:0000d28d       ?__scrt_initialize_type_info@@YAXXZ 1000e28d f   LIBCMT:tncleanup.obj
 0001:0000d299       ?__scrt_uninitialize_type_info@@YAXXZ 1000e299 f   LIBCMT:tncleanup.obj
 0001:0000d2a5       ___local_stdio_printf_options 1000e2a5 f i LIBCMT:default_local_stdio_options.obj
 0001:0000d2ab       ___local_stdio_scanf_options 1000e2ab f i LIBCMT:default_local_stdio_options.obj
 0001:0000d2b1       ___scrt_initialize_default_local_stdio_options 1000e2b1 f   LIBCMT:default_local_stdio_options.obj
 0001:0000d2ce       ___scrt_get_dyn_tls_init_callback 1000e2ce f   LIBCMT:dyn_tls_init.obj
 0001:0000d2d4       __RTC_Initialize           1000e2d4 f   LIBCMT:_initsect_.obj
 0001:0000d2ff       __RTC_Terminate            1000e2ff f   LIBCMT:_initsect_.obj
 0001:0000d330       _memmove                   1000e330 f   libvcruntime:memmove.obj
 0001:0000d8a4       ___std_exception_copy      1000e8a4 f   libvcruntime:std_exception.obj
 0001:0000d907       ___std_exception_destroy   1000e907 f   libvcruntime:std_exception.obj
 0001:0000d926       __CxxThrowException@8      1000e926 f   libvcruntime:throw.obj
 0001:0000d994       ___vcrt_initialize         1000e994 f   libvcruntime:initialization.obj
 0001:0000d9bd       ___vcrt_thread_attach      1000e9bd f   libvcruntime:initialization.obj
 0001:0000d9c8       ___vcrt_thread_detach      1000e9c8 f   libvcruntime:initialization.obj
 0001:0000d9d3       ___vcrt_uninitialize       1000e9d3 f   libvcruntime:initialization.obj
 0001:0000d9f2       ___vcrt_uninitialize_critical 1000e9f2 f   libvcruntime:initialization.obj
 0001:0000da40       __except_handler4          1000ea40 f   libvcruntime:_chandler4_.obj
 0001:0000dbb0       _memset                    1000ebb0 f   libvcruntime:memset.obj
 0001:0000dd0a       ___std_type_info_destroy_list 1000ed0a f   libvcruntime:std_type_info.obj
 0001:0000dd2d       ___vcrt_freefls@4          1000ed2d f   libvcruntime:per_thread_data.obj
 0001:0000dd49       ___vcrt_freeptd            1000ed49 f   libvcruntime:per_thread_data.obj
 0001:0000dd7f       ___vcrt_getptd_noexit      1000ed7f f   libvcruntime:per_thread_data.obj
 0001:0000de11       ___vcrt_initialize_ptd     1000ee11 f   libvcruntime:per_thread_data.obj
 0001:0000de44       ___vcrt_uninitialize_ptd   1000ee44 f   libvcruntime:per_thread_data.obj
 0001:0000de5f       ___vcrt_initialize_locks   1000ee5f f   libvcruntime:locks.obj
 0001:0000de9b       ___vcrt_uninitialize_locks 1000ee9b f   libvcruntime:locks.obj
 0001:0000dfeb       ___vcrt_FlsAlloc           1000efeb f   libvcruntime:winapi_downlevel.obj
 0001:0000e025       ___vcrt_FlsFree            1000f025 f   libvcruntime:winapi_downlevel.obj
 0001:0000e05f       ___vcrt_FlsGetValue        1000f05f f   libvcruntime:winapi_downlevel.obj
 0001:0000e099       ___vcrt_FlsSetValue        1000f099 f   libvcruntime:winapi_downlevel.obj
 0001:0000e0d6       ___vcrt_InitializeCriticalSectionEx 1000f0d6 f   libvcruntime:winapi_downlevel.obj
 0001:0000e11c       ___vcrt_initialize_winapi_thunks 1000f11c f   libvcruntime:winapi_downlevel.obj
 0001:0000e156       ___vcrt_uninitialize_winapi_thunks 1000f156 f   libvcruntime:winapi_downlevel.obj
 0001:0000e188       ___vcrt_initialize_pure_virtual_call_handler 1000f188 f   libvcruntime:purevirt_data.obj
 0001:0000e1b0       __local_unwind4            1000f1b0 f   libvcruntime:_exsup4_.obj
 0001:0000e286       __seh_longjmp_unwind4@4    1000f286 f   libvcruntime:_exsup4_.obj
 0001:0000e2ae       @_EH4_CallFilterFunc@8     1000f2ae f   libvcruntime:_exsup4_.obj
 0001:0000e2c5       @_EH4_TransferToHandler@8  1000f2c5 f   libvcruntime:_exsup4_.obj
 0001:0000e2de       @_EH4_GlobalUnwind2@8      1000f2de f   libvcruntime:_exsup4_.obj
 0001:0000e2f7       @_EH4_LocalUnwind@16       1000f2f7 f   libvcruntime:_exsup4_.obj
 0001:0000e30e       ___except_validate_context_record 1000f30e f   libvcruntime:jbcxrval.obj
 0001:0000e30e       @_guard_check_icall_nop@4  1000f30e f   LIBCMT:guard_support.obj
 0001:0000e30e       ___except_validate_jump_buffer 1000f30e f   libvcruntime:jbcxrval.obj
 0001:0000e310       __global_unwind2           1000f310 f   libvcruntime:_exsup_.obj
 0001:0000e375       __local_unwind2            1000f375 f   libvcruntime:_exsup_.obj
 0001:0000e3f9       __abnormal_termination     1000f3f9 f   libvcruntime:_exsup_.obj
 0001:0000e41c       __NLG_Notify1              1000f41c f   libvcruntime:_exsup_.obj
 0001:0000e425       __NLG_Notify               1000f425 f   libvcruntime:_exsup_.obj
 0001:0000e43c       __NLG_Dispatch             1000f43c     libvcruntime:_exsup_.obj
 0001:0000e43c       __NLG_Dispatch2            1000f43c     libvcruntime:_exsup_.obj
 0001:0000e444       __NLG_Call                 1000f444 f   libvcruntime:_exsup_.obj
 0001:0000e446       __NLG_Return2              1000f446     libvcruntime:_exsup_.obj
 0001:0000e447       ??0_LocaleUpdate@@QAE@QAU__crt_locale_pointers@@@Z 1000f447 f i libucrt:stricmp.obj
 0001:0000e4ca       _free                      1000f4ca f   libucrt:free.obj
 0001:0000eb33       ??$ftprintf@PAU_iobuf@@PB_WABQB_WABQB_WABI@?$__crt_char_traits@_W@@SAH$$QAPAU_iobuf@@$$QAPB_WABQB_W2ABI@Z 1000fb33 f i libucrt:assert.obj
 0001:0000ec12       __vfwprintf_l              1000fc12 f i libucrt:assert.obj
 0001:0000ec37       __vswprintf_c_l            1000fc37 f i libucrt:assert.obj
 0001:0000ec66       __wassert                  1000fc66 f   libucrt:assert.obj
 0001:0000ecae       _fwprintf                  1000fcae f i libucrt:assert.obj
 0001:0000ecc9       _swprintf                  1000fcc9 f i libucrt:assert.obj
 0001:0000ece7       ___acrt_call_reportfault   1000fce7 f   libucrt:invalid_parameter.obj
 0001:0000ee22       ___acrt_initialize_invalid_parameter_handler 1000fe22 f   libucrt:invalid_parameter.obj
 0001:0000ee36       __invalid_parameter        1000fe36 f   libucrt:invalid_parameter.obj
 0001:0000eeb1       __invalid_parameter_noinfo 1000feb1 f   libucrt:invalid_parameter.obj
 0001:0000eec1       __invalid_parameter_noinfo_noreturn 1000fec1 f   libucrt:invalid_parameter.obj
 0001:0000eede       __invoke_watson            1000fede f   libucrt:invalid_parameter.obj
 0001:0000ef11       _malloc                    1000ff11 f   libucrt:malloc.obj
 0001:0000ef1c       ?initialize@?$dual_state_global@P6AHI@Z@__crt_state_management@@QAEXQ6AHI@Z@Z 1000ff1c f i libucrt:new_handler.obj
 0001:0000ef1c       ?initialize@?$dual_state_global@P6AXH@Z@__crt_state_management@@QAEXQ6AXH@Z@Z 1000ff1c f i libucrt:signal.obj
 0001:0000ef1c       ?initialize@?$dual_state_global@PAU__crt_locale_data@@@__crt_state_management@@QAEXQAU__crt_locale_data@@@Z 1000ff1c f i libucrt:initialization.obj
 0001:0000ef1c       ?initialize@?$dual_state_global@P6AHPAU_exception@@@Z@__crt_state_management@@QAEXQ6AHPAU_exception@@@Z@Z 1000ff1c f i libucrt:matherr.obj
 0001:0000ef1c       ?initialize@?$dual_state_global@PAPAD@__crt_state_management@@QAEXQAPAD@Z 1000ff1c f i libucrt:environment_initialization.obj
 0001:0000ef1c       ?initialize@?$dual_state_global@P6AXPB_W00II@Z@__crt_state_management@@QAEXQ6AXPB_W00II@Z@Z 1000ff1c f i libucrt:invalid_parameter.obj
 0001:0000ef4d       ___acrt_initialize_new_handler 1000ff4d f   libucrt:new_handler.obj
 0001:0000ef61       __callnewh                 1000ff61 f   libucrt:new_handler.obj
 0001:0000efa5       __query_new_handler        1000ffa5 f   libucrt:new_handler.obj
 0001:0000eff7       __seh_filter_dll           1000fff7 f   libucrt:exception_filter.obj
 0001:0000f017       __seh_filter_exe           10010017 f   libucrt:exception_filter.obj
 0001:0000f3a5       ___acrt_initialize_thread_local_exit_callback 100103a5 f   libucrt:exit.obj
 0001:0000f3b4       __cexit                    100103b4 f   libucrt:exit.obj
 0001:0000f3c3       __exit                     100103c3 f   libucrt:exit.obj
 0001:0000f3d9       __is_c_termination_complete 100103d9 f   libucrt:exit.obj
 0001:0000f678       ___acrt_allocate_buffer_for_argv 10010678 f   libucrt:argv_parsing.obj
 0001:0000f6cd       __configure_narrow_argv    100106cd f   libucrt:argv_parsing.obj
 0001:0000f831       ??$uninitialize@A6AXAAPAPA_W@Z@?$dual_state_global@PAPA_W@__crt_state_management@@QAEXA6AXAAPAPA_W@Z@Z 10010831 f i libucrt:environment_initialization.obj
 0001:0000f831       ??$uninitialize@A6AXAAPAPAD@Z@?$dual_state_global@PAPAD@__crt_state_management@@QAEXA6AXAAPAPAD@Z@Z 10010831 f i libucrt:environment_initialization.obj
 0001:0000f8a7       ___dcrt_uninitialize_environments_nolock 100108a7 f   libucrt:environment_initialization.obj
 0001:0000f8de       __initialize_narrow_environment 100108de f   libucrt:environment_initialization.obj
 0001:0000f8e3       ??$?RV<lambda_800076c951b434888f4765a74a194fcc>@@AAV<lambda_4e60a939b0d047cfe11ddc22648dfba9>@@V<lambda_6dbb1268764f43b569ce7b67e331d33a>@@@?$__crt_seh_guarded_call@H@@QAEH$$QAV<lambda_800076c951b434888f4765a74a194fcc>@@AAV<lambda_4e60a939b0d047cfe11ddc22648dfba9>@@$$QAV<lambda_6dbb1268764f43b569ce7b67e331d33a>@@@Z 100108e3 f i libucrt:onexit.obj
 0001:0000f934       ??$?RV<lambda_995298e7d72eb4c2aab26c0585b3abe5>@@AAV<lambda_275893d493268fdec8709772e3fcec0e>@@V<lambda_293819299cbf9a7022e18b56a874bb5c>@@@?$__crt_seh_guarded_call@H@@QAEH$$QAV<lambda_995298e7d72eb4c2aab26c0585b3abe5>@@AAV<lambda_275893d493268fdec8709772e3fcec0e>@@$$QAV<lambda_293819299cbf9a7022e18b56a874bb5c>@@@Z 10010934 f i libucrt:onexit.obj
 0001:0000f985       ??$__acrt_lock_and_call@V<lambda_275893d493268fdec8709772e3fcec0e>@@@@YAHW4__acrt_lock_id@@$$QAV<lambda_275893d493268fdec8709772e3fcec0e>@@@Z 10010985 f i libucrt:onexit.obj
 0001:0000f9ad       ??$__acrt_lock_and_call@V<lambda_4e60a939b0d047cfe11ddc22648dfba9>@@@@YAHW4__acrt_lock_id@@$$QAV<lambda_4e60a939b0d047cfe11ddc22648dfba9>@@@Z 100109ad f i libucrt:onexit.obj
 0001:0000f9d5       ??$__crt_fast_encode_pointer@P6AHXZ@@YAP6AHXZQ6AHXZ@Z 100109d5 f i libucrt:onexit.obj
 0001:0000fc55       __crt_atexit               10010c55 f   libucrt:onexit.obj
 0001:0000fc6b       __execute_onexit_table     10010c6b f   libucrt:onexit.obj
 0001:0000fc88       __initialize_onexit_table  10010c88 f   libucrt:onexit.obj
 0001:0000fcc5       __register_onexit_function 10010cc5 f   libucrt:onexit.obj
 0001:0000fd15       ___acrt_uninitialize_command_line 10010d15 f   libucrt:argv_data.obj
 0001:0000fddd       ___acrt_initialize         10010ddd f   libucrt:initialization.obj
 0001:0000fdef       ___acrt_thread_attach      10010def f   libucrt:initialization.obj
 0001:0000fdfa       ___acrt_thread_detach      10010dfa f   libucrt:initialization.obj
 0001:0000fe02       ___acrt_uninitialize       10010e02 f   libucrt:initialization.obj
 0001:0000fe14       ___acrt_uninitialize_critical 10010e14 f   libucrt:initialization.obj
 0001:0000fe26       __initterm                 10010e26 f   libucrt:initterm.obj
 0001:0000fe82       __initterm_e               10010e82 f   libucrt:initterm.obj
 0001:0000fec7       _terminate                 10010ec7 f   libucrt:terminate.obj
 0001:0000ff03       _strcpy_s                  10010f03 f   libucrt:strcpy_s.obj
 0001:0000ff5d       __free_base                10010f5d f   libucrt:free_base.obj
 0001:0000ff97       __malloc_base              10010f97 f   libucrt:malloc_base.obj
 0001:0000ffe5       _abort                     10010fe5 f   libucrt:abort.obj
 0001:00010028       __calloc_base              10011028 f   libucrt:calloc_base.obj
 0001:00010085       ??$?RV<lambda_ab9923ffb5d694ec0d78876dd103e44f>@@AAV<lambda_481dd5778c961fbcd3b60b650e9b9dc4>@@V<lambda_7923d86c9e3f319b415918ec4b39749c>@@@?$__crt_seh_guarded_call@H@@QAEH$$QAV<lambda_ab9923ffb5d694ec0d78876dd103e44f>@@AAV<lambda_481dd5778c961fbcd3b60b650e9b9dc4>@@$$QAV<lambda_7923d86c9e3f319b415918ec4b39749c>@@@Z 10011085 f i libucrt:output.obj
 0001:000100d6       ??$__acrt_lock_stream_and_call@V<lambda_481dd5778c961fbcd3b60b650e9b9dc4>@@@@YAHQAU_iobuf@@$$QAV<lambda_481dd5778c961fbcd3b60b650e9b9dc4>@@@Z 100110d6 f i libucrt:output.obj
 0001:00010283       ??$count@D@formatting_buffer@__crt_stdio_output@@QBEIXZ 10011283 f i libucrt:output.obj
 0001:0001029b       ??$ensure_buffer_is_big_enough@D@formatting_buffer@__crt_stdio_output@@QAE_NI@Z 1001129b f i libucrt:output.obj
 0001:00010321       ??$is_wide_character_specifier@_W@__crt_stdio_output@@YA_N_K_WW4length_modifier@0@@Z 10011321 f i libucrt:output.obj
 0001:00010370       ??$scratch_data@D@formatting_buffer@__crt_stdio_output@@QAEPADXZ 10011370 f i libucrt:output.obj
 0001:0001038e       ??$type_case_integer_parse_into_buffer@I@?$output_processor@_WV?$stream_output_adapter@_W@__crt_stdio_output@@V?$standard_base@_WV?$stream_output_adapter@_W@__crt_stdio_output@@@2@@__crt_stdio_output@@AAEXII_N@Z 1001138e f i libucrt:output.obj
 0001:0001038e       ??$type_case_integer_parse_into_buffer@I@?$output_processor@_WV?$string_output_adapter@_W@__crt_stdio_output@@V?$standard_base@_WV?$string_output_adapter@_W@__crt_stdio_output@@@2@@__crt_stdio_output@@AAEXII_N@Z 1001138e f i libucrt:output.obj
 0001:00010403       ??$type_case_integer_parse_into_buffer@_K@?$output_processor@_WV?$stream_output_adapter@_W@__crt_stdio_output@@V?$standard_base@_WV?$stream_output_adapter@_W@__crt_stdio_output@@@2@@__crt_stdio_output@@AAEX_KI_N@Z 10011403 f i libucrt:output.obj
 0001:00010403       ??$type_case_integer_parse_into_buffer@_K@?$output_processor@_WV?$string_output_adapter@_W@__crt_stdio_output@@V?$standard_base@_WV?$string_output_adapter@_W@__crt_stdio_output@@@2@@__crt_stdio_output@@AAEX_KI_N@Z 10011403 f i libucrt:output.obj
 0001:0001048b       ??$write_multiple_characters@V?$stream_output_adapter@_W@__crt_stdio_output@@D@__crt_stdio_output@@YAXABV?$stream_output_adapter@_W@0@DHQAH@Z 1001148b f i libucrt:output.obj
 0001:000104bc       ??$write_multiple_characters@V?$string_output_adapter@_W@__crt_stdio_output@@D@__crt_stdio_output@@YAXABV?$string_output_adapter@_W@0@DHQAH@Z 100114bc f i libucrt:output.obj
 0001:000104ed       ??0?$common_data@_W@__crt_stdio_output@@IAE@XZ 100114ed f i libucrt:output.obj
 0001:00010539       ??0?$output_adapter_data@_WV?$stream_output_adapter@_W@__crt_stdio_output@@@__crt_stdio_output@@IAE@ABV?$stream_output_adapter@_W@1@_KQB_WQAU__crt_locale_pointers@@QAD@Z 10011539 f i libucrt:output.obj
 0001:00010539       ??0?$output_adapter_data@_WV?$string_output_adapter@_W@__crt_stdio_output@@@__crt_stdio_output@@IAE@ABV?$string_output_adapter@_W@1@_KQB_WQAU__crt_locale_pointers@@QAD@Z 10011539 f i libucrt:output.obj
 0001:00010575       ??0?$output_processor@_WV?$stream_output_adapter@_W@__crt_stdio_output@@V?$standard_base@_WV?$stream_output_adapter@_W@__crt_stdio_output@@@2@@__crt_stdio_output@@QAE@ABV?$stream_output_adapter@_W@1@_KQB_WQAU__crt_locale_pointers@@QAD@Z 10011575 f i libucrt:output.obj
 0001:00010575       ??0?$output_processor@_WV?$string_output_adapter@_W@__crt_stdio_output@@V?$standard_base@_WV?$string_output_adapter@_W@__crt_stdio_output@@@2@@__crt_stdio_output@@QAE@ABV?$string_output_adapter@_W@1@_KQB_WQAU__crt_locale_pointers@@QAD@Z 10011575 f i libucrt:output.obj
 0001:000105aa       ??1formatting_buffer@__crt_stdio_output@@QAE@XZ 100115aa f i libucrt:output.obj
 0001:000105c4       ??4?$__crt_unique_heap_ptr@DU__crt_internal_free_policy@@@@QAEAAV0@$$QAV0@@Z 100115c4 f i libucrt:output.obj
 0001:000106a5       ?crop_zeroes@__crt_stdio_output@@YAXPADQAU__crt_locale_pointers@@@Z 100116a5 f i libucrt:output.obj
 0001:000106fc       ?find_next_state@?$output_processor@_WV?$string_output_adapter@_W@__crt_stdio_output@@V?$standard_base@_WV?$string_output_adapter@_W@__crt_stdio_output@@@2@@__crt_stdio_output@@ABE?AW4state@2@_WW432@@Z 100116fc f i libucrt:output.obj
 0001:000106fc       ?find_next_state@?$output_processor@_WV?$stream_output_adapter@_W@__crt_stdio_output@@V?$standard_base@_WV?$stream_output_adapter@_W@__crt_stdio_output@@@2@@__crt_stdio_output@@ABE?AW4state@2@_WW432@@Z 100116fc f i libucrt:output.obj
 0001:00010730       ?force_decimal_point@__crt_stdio_output@@YAXPADQAU__crt_locale_pointers@@@Z 10011730 f i libucrt:output.obj
 0001:0001078c       ?parse_int_from_format_string@?$output_processor@_WV?$stream_output_adapter@_W@__crt_stdio_output@@V?$standard_base@_WV?$stream_output_adapter@_W@__crt_stdio_output@@@2@@__crt_stdio_output@@AAE_NQAH@Z 1001178c f i libucrt:output.obj
 0001:0001078c       ?parse_int_from_format_string@?$output_processor@_WV?$string_output_adapter@_W@__crt_stdio_output@@V?$standard_base@_WV?$string_output_adapter@_W@__crt_stdio_output@@@2@@__crt_stdio_output@@AAE_NQAH@Z 1001178c f i libucrt:output.obj
 0001:000107ea       ?process@?$output_processor@_WV?$stream_output_adapter@_W@__crt_stdio_output@@V?$standard_base@_WV?$stream_output_adapter@_W@__crt_stdio_output@@@2@@__crt_stdio_output@@QAEHXZ 100117ea f i libucrt:output.obj
 0001:0001090a       ?process@?$output_processor@_WV?$string_output_adapter@_W@__crt_stdio_output@@V?$standard_base@_WV?$string_output_adapter@_W@__crt_stdio_output@@@2@@__crt_stdio_output@@QAEHXZ 1001190a f i libucrt:output.obj
 0001:00010a2a       ?state_case_flag@?$output_processor@_WV?$stream_output_adapter@_W@__crt_stdio_output@@V?$standard_base@_WV?$stream_output_adapter@_W@__crt_stdio_output@@@2@@__crt_stdio_output@@AAE_NXZ 10011a2a f i libucrt:output.obj
 0001:00010a2a       ?state_case_flag@?$output_processor@_WV?$string_output_adapter@_W@__crt_stdio_output@@V?$standard_base@_WV?$string_output_adapter@_W@__crt_stdio_output@@@2@@__crt_stdio_output@@AAE_NXZ 10011a2a f i libucrt:output.obj
 0001:00010a67       ?state_case_normal@?$output_processor@_WV?$stream_output_adapter@_W@__crt_stdio_output@@V?$standard_base@_WV?$stream_output_adapter@_W@__crt_stdio_output@@@2@@__crt_stdio_output@@AAE_NXZ 10011a67 f i libucrt:output.obj
 0001:00010a86       ?state_case_normal@?$output_processor@_WV?$string_output_adapter@_W@__crt_stdio_output@@V?$standard_base@_WV?$string_output_adapter@_W@__crt_stdio_output@@@2@@__crt_stdio_output@@AAE_NXZ 10011a86 f i libucrt:output.obj
 0001:00010aa5       ?state_case_normal_common@?$output_processor@_WV?$stream_output_adapter@_W@__crt_stdio_output@@V?$standard_base@_WV?$stream_output_adapter@_W@__crt_stdio_output@@@2@@__crt_stdio_output@@AAE_NXZ 10011aa5 f i libucrt:output.obj
 0001:00010ac0       ?state_case_normal_common@?$output_processor@_WV?$string_output_adapter@_W@__crt_stdio_output@@V?$standard_base@_WV?$string_output_adapter@_W@__crt_stdio_output@@@2@@__crt_stdio_output@@AAE_NXZ 10011ac0 f i libucrt:output.obj
 0001:00010adb       ?state_case_precision@?$output_processor@_WV?$stream_output_adapter@_W@__crt_stdio_output@@V?$standard_base@_WV?$stream_output_adapter@_W@__crt_stdio_output@@@2@@__crt_stdio_output@@AAE_NXZ 10011adb f i libucrt:output.obj
 0001:00010adb       ?state_case_precision@?$output_processor@_WV?$string_output_adapter@_W@__crt_stdio_output@@V?$standard_base@_WV?$string_output_adapter@_W@__crt_stdio_output@@@2@@__crt_stdio_output@@AAE_NXZ 10011adb f i libucrt:output.obj
 0001:00010b04       ?state_case_size@?$output_processor@_WV?$stream_output_adapter@_W@__crt_stdio_output@@V?$standard_base@_WV?$stream_output_adapter@_W@__crt_stdio_output@@@2@@__crt_stdio_output@@AAE_NXZ 10011b04 f i libucrt:output.obj
 0001:00010c80       ?state_case_size@?$output_processor@_WV?$string_output_adapter@_W@__crt_stdio_output@@V?$standard_base@_WV?$string_output_adapter@_W@__crt_stdio_output@@@2@@__crt_stdio_output@@AAE_NXZ 10011c80 f i libucrt:output.obj
 0001:00010dfc       ?state_case_type@?$output_processor@_WV?$stream_output_adapter@_W@__crt_stdio_output@@V?$standard_base@_WV?$stream_output_adapter@_W@__crt_stdio_output@@@2@@__crt_stdio_output@@AAE_NXZ 10011dfc f i libucrt:output.obj
 0001:00011059       ?state_case_type@?$output_processor@_WV?$string_output_adapter@_W@__crt_stdio_output@@V?$standard_base@_WV?$string_output_adapter@_W@__crt_stdio_output@@@2@@__crt_stdio_output@@AAE_NXZ 10012059 f i libucrt:output.obj
 0001:000112b6       ?state_case_width@?$output_processor@_WV?$stream_output_adapter@_W@__crt_stdio_output@@V?$standard_base@_WV?$stream_output_adapter@_W@__crt_stdio_output@@@2@@__crt_stdio_output@@AAE_NXZ 100122b6 f i libucrt:output.obj
 0001:000112b6       ?state_case_width@?$output_processor@_WV?$string_output_adapter@_W@__crt_stdio_output@@V?$standard_base@_WV?$string_output_adapter@_W@__crt_stdio_output@@@2@@__crt_stdio_output@@AAE_NXZ 100122b6 f i libucrt:output.obj
 0001:000112e2       ?to_integer_size@__crt_stdio_output@@YAIW4length_modifier@1@@Z 100122e2 f i libucrt:output.obj
 0001:0001133e       ?type_case_Z@?$output_processor@_WV?$stream_output_adapter@_W@__crt_stdio_output@@V?$standard_base@_WV?$stream_output_adapter@_W@__crt_stdio_output@@@2@@__crt_stdio_output@@AAE_NXZ 1001233e f i libucrt:output.obj
 0001:0001133e       ?type_case_Z@?$output_processor@_WV?$string_output_adapter@_W@__crt_stdio_output@@V?$standard_base@_WV?$string_output_adapter@_W@__crt_stdio_output@@@2@@__crt_stdio_output@@AAE_NXZ 1001233e f i libucrt:output.obj
 0001:000113a1       ?type_case_a@?$output_processor@_WV?$string_output_adapter@_W@__crt_stdio_output@@V?$standard_base@_WV?$string_output_adapter@_W@__crt_stdio_output@@@2@@__crt_stdio_output@@AAE_NXZ 100123a1 f i libucrt:output.obj
 0001:000113a1       ?type_case_a@?$output_processor@_WV?$stream_output_adapter@_W@__crt_stdio_output@@V?$standard_base@_WV?$stream_output_adapter@_W@__crt_stdio_output@@@2@@__crt_stdio_output@@AAE_NXZ 100123a1 f i libucrt:output.obj
 0001:00011513       ?type_case_c_tchar@?$output_processor@_WV?$string_output_adapter@_W@__crt_stdio_output@@V?$standard_base@_WV?$string_output_adapter@_W@__crt_stdio_output@@@2@@__crt_stdio_output@@AAE_N_W@Z 10012513 f i libucrt:output.obj
 0001:00011513       ?type_case_c_tchar@?$output_processor@_WV?$stream_output_adapter@_W@__crt_stdio_output@@V?$standard_base@_WV?$stream_output_adapter@_W@__crt_stdio_output@@@2@@__crt_stdio_output@@AAE_N_W@Z 10012513 f i libucrt:output.obj
 0001:000115ab       ?type_case_integer@?$output_processor@_WV?$stream_output_adapter@_W@__crt_stdio_output@@V?$standard_base@_WV?$stream_output_adapter@_W@__crt_stdio_output@@@2@@__crt_stdio_output@@AAE_NI_N@Z 100125ab f i libucrt:output.obj
 0001:000115ab       ?type_case_integer@?$output_processor@_WV?$string_output_adapter@_W@__crt_stdio_output@@V?$standard_base@_WV?$string_output_adapter@_W@__crt_stdio_output@@@2@@__crt_stdio_output@@AAE_NI_N@Z 100125ab f i libucrt:output.obj
 0001:000116f5       ?type_case_n@?$output_processor@_WV?$string_output_adapter@_W@__crt_stdio_output@@V?$standard_base@_WV?$string_output_adapter@_W@__crt_stdio_output@@@2@@__crt_stdio_output@@AAE_NXZ 100126f5 f i libucrt:output.obj
 0001:000116f5       ?type_case_n@?$output_processor@_WV?$stream_output_adapter@_W@__crt_stdio_output@@V?$standard_base@_WV?$stream_output_adapter@_W@__crt_stdio_output@@@2@@__crt_stdio_output@@AAE_NXZ 100126f5 f i libucrt:output.obj
 0001:00011769       ?type_case_o@?$output_processor@_WV?$string_output_adapter@_W@__crt_stdio_output@@V?$standard_base@_WV?$string_output_adapter@_W@__crt_stdio_output@@@2@@__crt_stdio_output@@AAE_NXZ 10012769 f i libucrt:output.obj
 0001:00011769       ?type_case_o@?$output_processor@_WV?$stream_output_adapter@_W@__crt_stdio_output@@V?$standard_base@_WV?$stream_output_adapter@_W@__crt_stdio_output@@@2@@__crt_stdio_output@@AAE_NXZ 10012769 f i libucrt:output.obj
 0001:00011788       ?type_case_p@?$output_processor@_WV?$stream_output_adapter@_W@__crt_stdio_output@@V?$standard_base@_WV?$stream_output_adapter@_W@__crt_stdio_output@@@2@@__crt_stdio_output@@AAE_NXZ 10012788 f i libucrt:output.obj
 0001:00011788       ?type_case_p@?$output_processor@_WV?$string_output_adapter@_W@__crt_stdio_output@@V?$standard_base@_WV?$string_output_adapter@_W@__crt_stdio_output@@@2@@__crt_stdio_output@@AAE_NXZ 10012788 f i libucrt:output.obj
 0001:000117a0       ?type_case_s@?$output_processor@_WV?$stream_output_adapter@_W@__crt_stdio_output@@V?$standard_base@_WV?$stream_output_adapter@_W@__crt_stdio_output@@@2@@__crt_stdio_output@@AAE_NXZ 100127a0 f i libucrt:output.obj
 0001:000117a0       ?type_case_s@?$output_processor@_WV?$string_output_adapter@_W@__crt_stdio_output@@V?$standard_base@_WV?$string_output_adapter@_W@__crt_stdio_output@@@2@@__crt_stdio_output@@AAE_NXZ 100127a0 f i libucrt:output.obj
 0001:00011814       ?type_case_s_compute_narrow_string_length@?$output_processor@_WV?$string_output_adapter@_W@__crt_stdio_output@@V?$standard_base@_WV?$string_output_adapter@_W@__crt_stdio_output@@@2@@__crt_stdio_output@@ABEHH_W@Z 10012814 f i libucrt:output.obj
 0001:00011814       ?type_case_s_compute_narrow_string_length@?$output_processor@_WV?$stream_output_adapter@_W@__crt_stdio_output@@V?$standard_base@_WV?$stream_output_adapter@_W@__crt_stdio_output@@@2@@__crt_stdio_output@@ABEHH_W@Z 10012814 f i libucrt:output.obj
 0001:00011854       ?write_character@?$stream_output_adapter@_W@__crt_stdio_output@@QBEX_WQAH@Z 10012854 f i libucrt:output.obj
 0001:00011894       ?write_character@?$string_output_adapter@_W@__crt_stdio_output@@QBE_N_WQAH@Z 10012894 f i libucrt:output.obj
 0001:000118d9       ?write_stored_string_tchar@?$output_processor@_WV?$stream_output_adapter@_W@__crt_stdio_output@@V?$standard_base@_WV?$stream_output_adapter@_W@__crt_stdio_output@@@2@@__crt_stdio_output@@AAE_N_W@Z 100128d9 f i libucrt:output.obj
 0001:00011964       ?write_stored_string_tchar@?$output_processor@_WV?$string_output_adapter@_W@__crt_stdio_output@@V?$standard_base@_WV?$string_output_adapter@_W@__crt_stdio_output@@@2@@__crt_stdio_output@@AAE_N_W@Z 10012964 f i libucrt:output.obj
 0001:000119ef       ?write_string@?$stream_output_adapter@_W@__crt_stdio_output@@QBEXQB_WHQAH1@Z 100129ef f i libucrt:output.obj
 0001:00011a7c       ?write_string@?$string_output_adapter@_W@__crt_stdio_output@@QBEXQB_WHQAH1@Z 10012a7c f i libucrt:output.obj
 0001:00011b16       ___stdio_common_vfwprintf  10012b16 f   libucrt:output.obj
 0001:00011b8d       ___stdio_common_vswprintf  10012b8d f   libucrt:output.obj
 0001:00011bb1       ??$is_overflow_condition@K@__crt_strtox@@YA_NIK@Z 10012bb1 f i libucrt:atox.obj
 0001:00011be4       ??$parse_integer@KV?$c_string_character_source@_W@__crt_strtox@@@__crt_strtox@@YAKQAU__crt_locale_pointers@@V?$c_string_character_source@_W@0@H_N@Z 10012be4 f i libucrt:atox.obj
 0001:000122c9       ?unget@?$c_string_character_source@_W@__crt_strtox@@QAEX_W@Z 100132c9 f i libucrt:atox.obj
 0001:000122f5       ?validate@?$c_string_character_source@_W@__crt_strtox@@QBE_NXZ 100132f5 f i libucrt:atox.obj
 0001:000122f5       ?validate@?$stream_output_adapter@_W@__crt_stdio_output@@QBE_NXZ 100132f5 f i libucrt:output.obj
 0001:000122f5       ?validate@?$string_output_adapter@_W@__crt_stdio_output@@QBE_NXZ 100132f5 f i libucrt:output.obj
 0001:00012310       __chvalidchk_l             10013310 f i libucrt:atox.obj
 0001:0001233a       __ischartype_l             1001333a f i libucrt:atox.obj
 0001:0001236d       ___acrt_errno_from_os_error 1001336d f   libucrt:errno.obj
 0001:000123b0       ___acrt_errno_map_os_error 100133b0 f   libucrt:errno.obj
 0001:000123d3       ___doserrno                100133d3 f   libucrt:errno.obj
 0001:000123e6       __errno                    100133e6 f   libucrt:errno.obj
 0001:00012560       __tolower_l                10013560 f   libucrt:tolower_toupper.obj
 0001:0001257a       _tolower                   1001357a f   libucrt:tolower_toupper.obj
 0001:000125aa       ??$?RV<lambda_3518db117f0e7cdb002338c5d3c47b6c>@@AAV<lambda_b2ea41f6bbb362cd97d94c6828d90b61>@@V<lambda_abdedf541bb04549bc734292b4a045d4>@@@?$__crt_seh_guarded_call@X@@QAEX$$QAV<lambda_3518db117f0e7cdb002338c5d3c47b6c>@@AAV<lambda_b2ea41f6bbb362cd97d94c6828d90b61>@@$$QAV<lambda_abdedf541bb04549bc734292b4a045d4>@@@Z 100135aa f i libucrt:per_thread_data.obj
 0001:000125fa       ??$?RV<lambda_51b6e8b1eb166f2a3faf91f424b38130>@@AAV<lambda_6250bd4b2a391816dd638c3bf72b0bcb>@@V<lambda_0b5a4a3e68152e1d9b943535f5f47bed>@@@?$__crt_seh_guarded_call@X@@QAEX$$QAV<lambda_51b6e8b1eb166f2a3faf91f424b38130>@@AAV<lambda_6250bd4b2a391816dd638c3bf72b0bcb>@@$$QAV<lambda_0b5a4a3e68152e1d9b943535f5f47bed>@@@Z 100135fa f i libucrt:per_thread_data.obj
 0001:0001265b       ??$?RV<lambda_5b71d36f03204c0beab531769a5b5694>@@AAV<lambda_be2b3da3f62db62e9dad5dc70221a656>@@V<lambda_8f9ce462984622f9bf76b59e2aaaf805>@@@?$__crt_seh_guarded_call@X@@QAEX$$QAV<lambda_5b71d36f03204c0beab531769a5b5694>@@AAV<lambda_be2b3da3f62db62e9dad5dc70221a656>@@$$QAV<lambda_8f9ce462984622f9bf76b59e2aaaf805>@@@Z 1001365b f i libucrt:per_thread_data.obj
 0001:000126a6       ??$?RV<lambda_9df27f884b057bc3edfc946cb5b7cf47>@@AAV<lambda_e69574bed617af4e071282c136b37893>@@V<lambda_cc0d902bcbbeb830f749456577db4721>@@@?$__crt_seh_guarded_call@X@@QAEX$$QAV<lambda_9df27f884b057bc3edfc946cb5b7cf47>@@AAV<lambda_e69574bed617af4e071282c136b37893>@@$$QAV<lambda_cc0d902bcbbeb830f749456577db4721>@@@Z 100136a6 f i libucrt:per_thread_data.obj
 0001:000126ee       ??$__acrt_lock_and_call@V<lambda_6250bd4b2a391816dd638c3bf72b0bcb>@@@@YAXW4__acrt_lock_id@@$$QAV<lambda_6250bd4b2a391816dd638c3bf72b0bcb>@@@Z 100136ee f i libucrt:per_thread_data.obj
 0001:00012716       ??$__acrt_lock_and_call@V<lambda_b2ea41f6bbb362cd97d94c6828d90b61>@@@@YAXW4__acrt_lock_id@@$$QAV<lambda_b2ea41f6bbb362cd97d94c6828d90b61>@@@Z 10013716 f i libucrt:per_thread_data.obj
 0001:0001273e       ??$__acrt_lock_and_call@V<lambda_be2b3da3f62db62e9dad5dc70221a656>@@@@YAXW4__acrt_lock_id@@$$QAV<lambda_be2b3da3f62db62e9dad5dc70221a656>@@@Z 1001373e f i libucrt:per_thread_data.obj
 0001:00012766       ??$__acrt_lock_and_call@V<lambda_e69574bed617af4e071282c136b37893>@@@@YAXW4__acrt_lock_id@@$$QAV<lambda_e69574bed617af4e071282c136b37893>@@@Z 10013766 f i libucrt:per_thread_data.obj
 0001:0001291c       ___acrt_freeptd            1001391c f   libucrt:per_thread_data.obj
 0001:00012948       ___acrt_getptd             10013948 f   libucrt:per_thread_data.obj
 0001:000129cc       ___acrt_getptd_noexit      100139cc f   libucrt:per_thread_data.obj
 0001:00012a51       ___acrt_initialize_ptd     10013a51 f   libucrt:per_thread_data.obj
 0001:00012a7d       ___acrt_uninitialize_ptd   10013a7d f   libucrt:per_thread_data.obj
 0001:00012a97       ___acrt_update_locale_info 10013a97 f   libucrt:locale_update.obj
 0001:00012ac4       ___acrt_update_multibyte_info 10013ac4 f   libucrt:locale_update.obj
 0001:00012af1       ___acrt_set_locale_changed 10013af1 f   libucrt:wsetlocale.obj
 0001:00012afc       ___acrt_uninitialize_locale 10013afc f   libucrt:wsetlocale.obj
 0001:00012b4e       __query_app_type           10013b4e f   libucrt:report_runtime_error.obj
 0001:00012c41       __itow_s                   10013c41 f   libucrt:xtoa.obj
 0001:00012c76       __set_error_mode           10013c76 f   libucrt:set_error_mode.obj
 0001:00012cb5       _wcscat_s                  10013cb5 f   libucrt:wcscat_s.obj
 0001:00012d2a       _wcscpy_s                  10013d2a f   libucrt:wcscpy_s.obj
 0001:00012e77       _wcsncat_s                 10013e77 f   libucrt:wcsncat_s.obj
 0001:00012f7d       ___acrt_show_wide_message_box 10013f7d f   libucrt:crtmbox.obj
 0001:00012f88       ___acrt_initialize_stdio   10013f88 f   libucrt:_file.obj
 0001:00013050       ___acrt_iob_func           10014050 f   libucrt:_file.obj
 0001:00013060       ___acrt_uninitialize_stdio 10014060 f   libucrt:_file.obj
 0001:000130ac       __lock_file                100140ac f   libucrt:_file.obj
 0001:000130c0       __unlock_file              100140c0 f   libucrt:_file.obj
 0001:000130d4       ___acrt_stdio_flush_nolock 100140d4 f   libucrt:fflush.obj
 0001:0001313a       __fflush_nolock            1001413a f   libucrt:fflush.obj
 0001:00013181       __flushall                 10014181 f   libucrt:fflush.obj
 0001:00013262       _fflush                    10014262 f   libucrt:fflush.obj
 0001:000132bb       ??$?RV<lambda_d92cfe8357b99225085016881b624cb0>@@AAV<lambda_b721fa326cdb32351d23dfa67958c160>@@V<lambda_42d75b0848218ec137fa420c8ba9fdf9>@@@?$__crt_seh_guarded_call@H@@QAEH$$QAV<lambda_d92cfe8357b99225085016881b624cb0>@@AAV<lambda_b721fa326cdb32351d23dfa67958c160>@@$$QAV<lambda_42d75b0848218ec137fa420c8ba9fdf9>@@@Z 100142bb f i libucrt:setvbuf.obj
 0001:0001330c       ??$__acrt_lock_stream_and_call@V<lambda_b721fa326cdb32351d23dfa67958c160>@@@@YAHQAU_iobuf@@$$QAV<lambda_b721fa326cdb32351d23dfa67958c160>@@@Z 1001430c f i libucrt:setvbuf.obj
 0001:00013401       _setvbuf                   10014401 f   libucrt:setvbuf.obj
 0001:00013477       ??$?RV<lambda_a048d3beccc847880fc8490e18b82769>@@AAV<lambda_ec61778202f4f5fc7e7711acc23c3bca>@@V<lambda_f7496a158712204296dd6628a163878e>@@@?$__crt_seh_guarded_call@P6AXH@Z@@QAEP6AXH@Z$$QAV<lambda_a048d3beccc847880fc8490e18b82769>@@AAV<lambda_ec61778202f4f5fc7e7711acc23c3bca>@@$$QAV<lambda_f7496a158712204296dd6628a163878e>@@@Z 10014477 f i libucrt:signal.obj
 0001:000134d1       ??$__acrt_lock_and_call@V<lambda_ec61778202f4f5fc7e7711acc23c3bca>@@@@YAP6AXH@ZW4__acrt_lock_id@@$$QAV<lambda_ec61778202f4f5fc7e7711acc23c3bca>@@@Z 100144d1 f i libucrt:signal.obj
 0001:00013563       ___acrt_get_sigabrt_handler 10014563 f   libucrt:signal.obj
 0001:0001357a       ___acrt_initialize_signal_handlers 1001457a f   libucrt:signal.obj
 0001:000135b5       ___fpecode                 100145b5 f   libucrt:signal.obj
 0001:000135be       _raise                     100145be f   libucrt:signal.obj
 0001:000137c6       ___acrt_initialize_locks   100147c6 f   libucrt:locks.obj
 0001:00013807       ___acrt_lock               10014807 f   libucrt:locks.obj
 0001:0001381e       ___acrt_uninitialize_locks 1001481e f   libucrt:locks.obj
 0001:0001384f       ___acrt_unlock             1001484f f   libucrt:locks.obj
 0001:000139b1       ___acrt_FlsAlloc@4         100149b1 f   libucrt:winapi_thunks.obj
 0001:00013a07       ___acrt_FlsFree@4          10014a07 f   libucrt:winapi_thunks.obj
 0001:00013a5d       ___acrt_FlsGetValue@4      10014a5d f   libucrt:winapi_thunks.obj
 0001:00013ab3       ___acrt_FlsSetValue@8      10014ab3 f   libucrt:winapi_thunks.obj
 0001:00013b0c       ___acrt_InitializeCriticalSectionEx@12 10014b0c f   libucrt:winapi_thunks.obj
 0001:00013b6e       ___acrt_LCMapStringEx@36   10014b6e f   libucrt:winapi_thunks.obj
 0001:00013bf6       ___acrt_LocaleNameToLCID@8 10014bf6 f   libucrt:winapi_thunks.obj
 0001:00013c52       ___acrt_MessageBoxW@16     10014c52 f   libucrt:winapi_thunks.obj
 0001:00013c9b       ___acrt_can_show_message_box 10014c9b f   libucrt:winapi_thunks.obj
 0001:00013cb4       ___acrt_get_parent_window  10014cb4 f   libucrt:winapi_thunks.obj
 0001:00013d33       ___acrt_initialize_winapi_thunks 10014d33 f   libucrt:winapi_thunks.obj
 0001:00013d59       ___acrt_is_interactive     10014d59 f   libucrt:winapi_thunks.obj
 0001:00013dff       ___acrt_is_packaged_app    10014dff f   libucrt:winapi_thunks.obj
 0001:00013e86       ___acrt_uninitialize_winapi_thunks 10014e86 f   libucrt:winapi_thunks.obj
 0001:0001427e       ??1?$argument_list@D@?A0xb0e4b824@@QAE@XZ 1001527e f i libucrt:argv_wildcards.obj
 0001:000142a3       ?append@?$argument_list@D@?A0xb0e4b824@@QAEHQAD@Z 100152a3 f i libucrt:argv_wildcards.obj
 0001:000142d8       ?expand_if_necessary@?$argument_list@D@?A0xb0e4b824@@AAEHXZ 100152d8 f i libucrt:argv_wildcards.obj
 0001:0001435f       ___acrt_expand_narrow_argv_wildcards 1001535f f   libucrt:argv_wildcards.obj
 0001:0001436a       ??$?RV<lambda_978dc153c237d78434369da87b74ff60>@@AAV<lambda_ad1ced32f4ac17aa236e5ef05d6b3b7c>@@V<lambda_4a8533e2866a575feecb8298ce776b0d>@@@?$__crt_seh_guarded_call@X@@QAEX$$QAV<lambda_978dc153c237d78434369da87b74ff60>@@AAV<lambda_ad1ced32f4ac17aa236e5ef05d6b3b7c>@@$$QAV<lambda_4a8533e2866a575feecb8298ce776b0d>@@@Z 1001536a f i libucrt:mbctype.obj
 0001:000143ad       ??$__acrt_lock_and_call@V<lambda_ad1ced32f4ac17aa236e5ef05d6b3b7c>@@@@YAXW4__acrt_lock_id@@$$QAV<lambda_ad1ced32f4ac17aa236e5ef05d6b3b7c>@@@Z 100153ad f i libucrt:mbctype.obj
 0001:00014844       ___acrt_initialize_multibyte 10015844 f   libucrt:mbctype.obj
 0001:00014862       ___acrt_update_thread_multibyte_data 10015862 f   libucrt:mbctype.obj
 0001:00014904       __setmbcp_nolock           10015904 f   libucrt:mbctype.obj
 0001:00014bcf       __ismbblead                10015bcf f   libucrt:ismbbyte.obj
 0001:00014be7       ___acrt_initialize_command_line 10015be7 f   libucrt:argv_data.obj
 0001:00014c37       ___dcrt_get_narrow_environment_from_os 10015c37 f   libucrt:get_environment_from_os.obj
 0001:00014cba       __recalloc                 10015cba f   libucrt:recalloc.obj
 0001:00014cc5       __recalloc_base            10015cc5 f   libucrt:recalloc.obj
 0001:00014d32       ___acrt_initialize_heap    10015d32 f   libucrt:heap_handle.obj
 0001:00014d43       ___acrt_uninitialize_heap  10015d43 f   libucrt:heap_handle.obj
 0001:00014eb9       ___acrt_initialize_lowio   10015eb9 f   libucrt:ioinit.obj
 0001:00014f0f       ___acrt_uninitialize_lowio 10015f0f f   libucrt:ioinit.obj
 0001:00014f3b       ___acrt_execute_initializers 10015f3b f   libucrt:shared_initialization.obj
 0001:00014fbe       ___acrt_execute_uninitializers 10015fbe f   libucrt:shared_initialization.obj
 0001:0001500b       ___acrt_has_user_matherr   1001600b f   libucrt:matherr.obj
 0001:00015024       ___acrt_initialize_user_matherr 10016024 f   libucrt:matherr.obj
 0001:00015038       ___acrt_invoke_user_matherr 10016038 f   libucrt:matherr.obj
 0001:00015081       ___acrt_stdio_begin_temporary_buffering_nolock 10016081 f   libucrt:_sftbuf.obj
 0001:00015136       ___acrt_stdio_end_temporary_buffering_nolock 10016136 f   libucrt:_sftbuf.obj
 0001:0001516f       __query_new_mode           1001616f f   libucrt:new_mode.obj
 0001:00015175       __isdigit_l                10016175 f i libucrt:_ctype.obj
 0001:000151ad       _isdigit                   100161ad f i libucrt:_ctype.obj
 0001:000151da       ??$make_c_string_character_source@_WPAPA_W@__crt_strtox@@YA?AV?$c_string_character_source@_W@0@QB_WQAPA_W@Z 100161da f i libucrt:strtox.obj
 0001:000151f5       _wcstol                    100161f5 f   libucrt:strtox.obj
 0001:00015221       __mbtowc_l                 10016221 f   libucrt:mbtowc.obj
 0001:0001531b       _mbtowc                    1001631b f   libucrt:mbtowc.obj
 0001:00015335       __wctomb_s_l               10016335 f   libucrt:wctomb.obj
 0001:00015456       _wctomb_s                  10016456 f   libucrt:wctomb.obj
 0001:00015473       _wcsnlen                   10016473 f   libucrt:strnlen.obj
 0001:0001562a       ?__acrt_fp_classify@@YA?AW4__acrt_fp_class@@ABN@Z 1001662a f i libucrt:cvt.obj
 0001:00015696       ?__acrt_fp_is_negative@@YA_NABN@Z 10016696 f i libucrt:cvt.obj
 0001:00015ef5       ___acrt_fp_format          10016ef5 f   libucrt:cvt.obj
 0001:00016071       __fputwc_nolock            10017071 f   libucrt:fputwc.obj
 0001:00016197       __fileno                   10017197 f   libucrt:fileno.obj
 0001:000161bd       __fputc_nolock             100171bd f   libucrt:fputc.obj
 0001:000161e6       __get_printf_count_output  100171e6 f   libucrt:printf_count_output.obj
 0001:000161fb       ___pctype_func             100171fb f   libucrt:ctype.obj
 0001:00016221       _iswctype                  10017221 f   libucrt:iswctype.obj
 0001:00016280       __isctype_l                10017280 f   libucrt:isctype.obj
 0001:00016352       __isleadbyte_l             10017352 f i libucrt:_wctype.obj
 0001:000165a8       ___acrt_LCMapStringA       100175a8 f   libucrt:lcmapstringa.obj
 0001:000165f3       __freea_crt                100175f3 f i libucrt:lcmapstringa.obj
 0001:00016613       ___acrt_add_locale_ref     10017613 f   libucrt:locale_refcounting.obj
 0001:00016690       ___acrt_free_locale        10017690 f   libucrt:locale_refcounting.obj
 0001:000167da       ___acrt_locale_add_lc_time_reference 100177da f   libucrt:locale_refcounting.obj
 0001:00016803       ___acrt_locale_free_lc_time_if_unreferenced 10017803 f   libucrt:locale_refcounting.obj
 0001:00016833       ___acrt_locale_release_lc_time_reference 10017833 f   libucrt:locale_refcounting.obj
 0001:0001685c       ___acrt_release_locale_ref 1001785c f   libucrt:locale_refcounting.obj
 0001:000168dd       ___acrt_update_thread_locale_data 100178dd f   libucrt:locale_refcounting.obj
 0001:00016954       __updatetlocinfoEx_nolock  10017954 f   libucrt:locale_refcounting.obj
 0001:000169a4       ___acrt_locale_free_monetary 100179a4 f   libucrt:initmon.obj
 0001:00016aa2       ___acrt_locale_free_numeric 10017aa2 f   libucrt:initnum.obj
 0001:00016b47       ___acrt_locale_free_time   10017b47 f   libucrt:inittime.obj
 0001:00016c2b       ___acrt_GetStringTypeA     10017c2b f   libucrt:getstringtypea.obj
 0001:00016d48       __fcloseall                10017d48 f   libucrt:closeall.obj
 0001:00016de8       ___acrt_stdio_free_buffer_nolock 10017de8 f   libucrt:_freebuf.obj
 0001:00016e26       ??$?RV<lambda_61cee617f5178ae960314fd4d05640a0>@@AAV<lambda_6978c1fb23f02e42e1d9e99668cc68aa>@@V<lambda_9cd88cf8ad10232537feb2133f08c833>@@@?$__crt_seh_guarded_call@H@@QAEH$$QAV<lambda_61cee617f5178ae960314fd4d05640a0>@@AAV<lambda_6978c1fb23f02e42e1d9e99668cc68aa>@@$$QAV<lambda_9cd88cf8ad10232537feb2133f08c833>@@@Z 10017e26 f i libucrt:commit.obj
 0001:00016ebe       ??$__acrt_lowio_lock_fh_and_call@V<lambda_6978c1fb23f02e42e1d9e99668cc68aa>@@@@YAHH$$QAV<lambda_6978c1fb23f02e42e1d9e99668cc68aa>@@@Z 10017ebe f i libucrt:commit.obj
 0001:00016ee6       __commit                   10017ee6 f   libucrt:commit.obj
 0001:000174e5       __write                    100184e5 f   libucrt:write.obj
 0001:000175d0       __write_nolock             100185d0 f   libucrt:write.obj
 0001:00017898       ___acrt_DownlevelLocaleNameToLCID 10018898 f   libucrt:lcidtoname_downlevel.obj
 0001:000179b0       _qsort                     100189b0 f   libucrt:qsort.obj
 0001:00017dfb       _strncpy_s                 10018dfb f   libucrt:strncpy_s.obj
 0001:00017e10       _strpbrk                   10018e10 f   libucrt:strpbrk.obj
 0001:00017e50       __mbsdec                   10018e50 f   libucrt:mbsdec.obj
 0001:00017e67       __mbsdec_l                 10018e67 f   libucrt:mbsdec.obj
 0001:00017f03       __msize                    10018f03 f   libucrt:msize.obj
 0001:00017f36       __realloc_base             10018f36 f   libucrt:realloc_base.obj
 0001:00017f9f       ___acrt_lowio_create_handle_array 10018f9f f   libucrt:osfinfo.obj
 0001:00018019       ___acrt_lowio_destroy_handle_array 10019019 f   libucrt:osfinfo.obj
 0001:0001804e       ___acrt_lowio_ensure_fh_exists 1001904e f   libucrt:osfinfo.obj
 0001:000180e6       ___acrt_lowio_lock_fh      100190e6 f   libucrt:osfinfo.obj
 0001:00018109       ___acrt_lowio_unlock_fh    10019109 f   libucrt:osfinfo.obj
 0001:0001812c       __free_osfhnd              1001912c f   libucrt:osfinfo.obj
 0001:000181bd       __get_osfhandle            100191bd f   libucrt:osfinfo.obj
 0001:00018227       __isatty                   10019227 f   libucrt:isatty.obj
 0001:0001827d       ___acrt_fp_strflt_to_string 1001927d f   libucrt:_fptostr.obj
 0001:00018339       ??0scoped_fp_state_reset@?A0x48fbfdd4@@QAE@XZ 10019339 f i libucrt:cfout.obj
 0001:00018370       ?divide@__crt_strtox@@YA_KAAUbig_integer@1@ABU21@@Z 10019370 f i libucrt:cfout.obj
 0001:0001881e       ___acrt_fltout             1001981e f   libucrt:cfout.obj
 0001:00019f80       ___acrt_stdio_flush_and_write_narrow_nolock 1001af80 f   libucrt:_flsbuf.obj
 0001:00019f8b       ___acrt_stdio_flush_and_write_wide_nolock 1001af8b f   libucrt:_flsbuf.obj
 0001:00019f96       ___strncnt                 1001af96 f   libucrt:strncnt.obj
 0001:00019fb2       __fclose_nolock            1001afb2 f   libucrt:fclose.obj
 0001:0001a028       _fclose                    1001b028 f   libucrt:fclose.obj
 0001:0001a22b       __lseeki64                 1001b22b f   libucrt:lseek.obj
 0001:0001a246       __lseeki64_nolock          1001b246 f   libucrt:lseek.obj
 0001:0001a261       __putwch_nolock            1001b261 f   libucrt:putwch.obj
 0001:0001a2a6       _fegetenv                  1001b2a6 f   libucrt:fegetenv.obj
 0001:0001a2c3       _fesetenv                  1001b2c3 f   libucrt:fesetenv.obj
 0001:0001a30c       _feholdexcept              1001b30c f   libucrt:feholdexcept.obj
 0001:0001a360       _log10                     1001b360 f   libucrt:log10.obj
 0001:0001a3a0       __CIlog10                  1001b3a0 f   libucrt:log10.obj
 0001:0001a3db       __CIlog10_default          1001b3db f   libucrt:log10.obj
 0001:0001a3ef       __log10_default            1001b3ef     libucrt:log10.obj
 0001:0001a4b0       _ceil                      1001b4b0 f   libucrt:ceil_pentium4.obj
 0001:0001a4f0       __ceil_pentium4            1001b4f0 f   libucrt:ceil_pentium4.obj
 0001:0001a5cd       ___acrt_stdio_allocate_buffer_nolock 1001b5cd f   libucrt:_getbuf.obj
 0001:0001a62a       ??$?RV<lambda_123407a5e2ac06da108355a851863b7a>@@AAV<lambda_2fe9b910cf3cbf4a0ab98a02ba45b3ec>@@V<lambda_ae55bdf541ad94d75914d381c370e64d>@@@?$__crt_seh_guarded_call@H@@QAEH$$QAV<lambda_123407a5e2ac06da108355a851863b7a>@@AAV<lambda_2fe9b910cf3cbf4a0ab98a02ba45b3ec>@@$$QAV<lambda_ae55bdf541ad94d75914d381c370e64d>@@@Z 1001b62a f i libucrt:close.obj
 0001:0001a6ac       ??$__acrt_lowio_lock_fh_and_call@V<lambda_2fe9b910cf3cbf4a0ab98a02ba45b3ec>@@@@YAHH$$QAV<lambda_2fe9b910cf3cbf4a0ab98a02ba45b3ec>@@@Z 1001b6ac f i libucrt:close.obj
 0001:0001a6d4       __close                    1001b6d4 f   libucrt:close.obj
 0001:0001a753       __close_nolock             1001b753 f   libucrt:close.obj
 0001:0001a7ef       ?__acrt_stdio_free_stream@@YAXV__crt_stdio_stream@@@Z 1001b7ef f   libucrt:stream.obj
 0001:0001a82a       ___dcrt_lowio_initialize_console_output 1001b82a f   libucrt:initcon.obj
 0001:0001a849       ___dcrt_terminate_console_output 1001b849 f   libucrt:initcon.obj
 0001:0001a860       ___ascii_strnicmp          1001b860 f   libucrt:_strnicm.obj
 0001:0001ab64       __getfpcontrolword         1001bb64 f   libucrt:_fenvutils.obj
 0001:0001aba7       __getfpstatusword          1001bba7 f   libucrt:_fenvutils.obj
 0001:0001ac4f       __setfpcontrolword         1001bc4f f   libucrt:_fenvutils.obj
 0001:0001accf       __setfpstatusword          1001bccf f   libucrt:_fenvutils.obj
 0001:0001ad4f       __clearfp                  1001bd4f f   libucrt:ieee87.obj
 0001:0001ae2d       ___acrt_initialize_sse2    1001be2d f   libucrt:mathfcns.obj
 0001:0001ae40       __CIlog10_pentium4         1001be40 f   libucrt:log10_pentium4.obj
 0001:0001ae58       __log10_pentium4           1001be58     libucrt:log10_pentium4.obj
 0001:0001b0e1       __fFEXP                    1001c0e1     libucrt:87tran.obj
 0001:0001b138       __rtinfpopse               1001c138     libucrt:87tran.obj
 0001:0001b13a       __rtinfnpopse              1001c13a     libucrt:87tran.obj
 0001:0001b14a       __fFLN                     1001c14a     libucrt:87tran.obj
 0001:0001b1ff       __rtinfpop                 1001c1ff     libucrt:87tran.obj
 0001:0001b201       __rtinfnpop                1001c201     libucrt:87tran.obj
 0001:0001b21e       __ffexpm1                  1001c21e     libucrt:87tran.obj
 0001:0001b2d0       __trandisp1                1001c2d0 f   libucrt:87disp.obj
 0001:0001b337       __trandisp2                1001c337 f   libucrt:87disp.obj
 0001:0001b3c3       __rttospopde               1001c3c3     libucrt:87disp.obj
 0001:0001b3c8       __rttospop                 1001c3c8     libucrt:87disp.obj
 0001:0001b3ca       __rtnospop                 1001c3ca     libucrt:87disp.obj
 0001:0001b3cc       __rttosnpop                1001c3cc     libucrt:87disp.obj
 0001:0001b3cd       __rtnospopde               1001c3cd     libucrt:87disp.obj
 0001:0001b3d4       __rtzeropop                1001c3d4     libucrt:87disp.obj
 0001:0001b3d6       __rtzeronpop               1001c3d6     libucrt:87disp.obj
 0001:0001b3db       __rtzerospop               1001c3db     libucrt:87disp.obj
 0001:0001b3e8       __rtonepop                 1001c3e8     libucrt:87disp.obj
 0001:0001b3ea       __rtonenpop                1001c3ea     libucrt:87disp.obj
 0001:0001b3ef       __tosnan1                  1001c3ef     libucrt:87disp.obj
 0001:0001b41a       __nosnan2                  1001c41a     libucrt:87disp.obj
 0001:0001b41c       __tosnan2                  1001c41c     libucrt:87disp.obj
 0001:0001b444       __nan2                     1001c444     libucrt:87disp.obj
 0001:0001b483       __rtindfpop                1001c483     libucrt:87disp.obj
 0001:0001b485       __rtindfnpop               1001c485     libucrt:87disp.obj
 0001:0001b496       __rttosnpopde              1001c496     libucrt:87disp.obj
 0001:0001b4a0       __rtatan2inf               1001c4a0     libucrt:87disp.obj
 0001:0001b4bd       __rtchsifneg               1001c4bd     libucrt:87disp.obj
 0001:0001b4d0       __twoToTOS                 1001c4d0 f   libucrt:common.obj
 0001:0001b4e5       __load_CW                  1001c4e5 f   libucrt:common.obj
 0001:0001b4fc       __convertTOStoQNaN         1001c4fc f   libucrt:common.obj
 0001:0001b515       __fload_withFB             1001c515 f   libucrt:common.obj
 0001:0001b558       __checkTOS_withFB          1001c558 f   libucrt:common.obj
 0001:0001b56e       __fast_exit                1001c56e f   libucrt:common.obj
 0001:0001b57b       __math_exit                1001c57b f   libucrt:common.obj
 0001:0001b5a5       __check_overflow_exit      1001c5a5 f   libucrt:common.obj
 0001:0001b5b9       __check_range_exit         1001c5b9 f   libucrt:common.obj
 0001:0001b660       __startTwoArgErrorHandling 1001c660 f   libucrt:genexcep.obj
 0001:0001b677       __startOneArgErrorHandling 1001c677 f   libucrt:genexcep.obj
 0001:0001b6b3       ___libm_error_support      1001c6b3 f   libucrt:libm_error.obj
 0001:0001b8cb       __ceil_default             1001c8cb f   libucrt:ceil.obj
 0001:0001b984       __clrfp                    1001c984 f   libucrt:fpctrl.obj
 0001:0001b997       __ctrlfp                   1001c997 f   libucrt:fpctrl.obj
 0001:0001b9c3       __set_statfp               1001c9c3 f   libucrt:fpctrl.obj
 0001:0001ba1e       __statfp                   1001ca1e f   libucrt:fpctrl.obj
 0001:0001ba30       __d_inttype                1001ca30 f   libucrt:powhlp.obj
 0001:0001ba9a       __powhlp                   1001ca9a f   libucrt:powhlp.obj
 0001:0001bbc5       __87except                 1001cbc5 f   libucrt:87except.obj
 0001:0001bcd0       __frnd                     1001ccd0 f   libucrt:frnd.obj
 0001:0001bce6       __errcode                  1001cce6 f   libucrt:fpexcept.obj
 0001:0001bd1a       __except1                  1001cd1a f   libucrt:fpexcept.obj
 0001:0001bde8       __handle_exc               1001cde8 f   libucrt:fpexcept.obj
 0001:0001bfc8       __raise_exc                1001cfc8 f   libucrt:fpexcept.obj
 0001:0001bfeb       __raise_exc_ex             1001cfeb f   libucrt:fpexcept.obj
 0001:0001c2dc       __set_errno_from_matherr   1001d2dc f   libucrt:fpexcept.obj
 0001:0001c30b       __umatherr                 1001d30b f   libucrt:fpexcept.obj
 0001:0001c3ad       __decomp                   1001d3ad f   libucrt:util.obj
 0001:0001c481       __set_exp                  1001d481 f   libucrt:util.obj
 0001:0001c4b0       __sptype                   1001d4b0 f   libucrt:util.obj
 0001:0001c50e       __fpclass                  1001d50e f   libucrt:ieeemisc.obj
 0001:0001c5b2       _IsProcessorFeaturePresent@4 1001d5b2 f   kernel32:KERNEL32.dll
 0001:0001c5b8       _RtlUnwind@16              1001d5b8 f   kernel32:KERNEL32.dll
 0001:0001c5c0       __FindPESection            1001d5c0 f   LIBCMT:pesect.obj
 0001:0001c610       __IsNonwritableInCurrentImage 1001d610 f   LIBCMT:pesect.obj
 0001:0001c6d0       __ValidateImageBase        1001d6d0 f   LIBCMT:pesect.obj
 0001:0001c710       __aulldvrm                 1001d710 f   LIBCMT:ulldvrm.obj
 0001:0001c7b0       __SEH_prolog4_GS           1001d7b0 f   LIBCMT:_sehprolg4gs_.obj
 0001:0001c7f9       __SEH_epilog4_GS           1001d7f9 f   LIBCMT:_sehprolg4gs_.obj
 0001:0001c810       __allmul                   1001d810 f   LIBCMT:llmul.obj
 0001:0001c850       __alldvrm                  1001d850 f   LIBCMT:lldvrm.obj
 0001:0001c930       __aullshr                  1001d930 f   LIBCMT:ullshr.obj
 0001:0001c950       __alloca_probe_16          1001d950 f   LIBCMT:alloca16.obj
 0001:0001c966       __alloca_probe_8           1001d966     LIBCMT:alloca16.obj
 0001:0001c980       __chkstk                   1001d980 f   LIBCMT:chkstk.obj
 0001:0001c980       __alloca_probe             1001d980 f   LIBCMT:chkstk.obj
 0001:0001c9b0       __allshl                   1001d9b0 f   LIBCMT:llshl.obj
 0001:0001c9d0       __ftol2_sse                1001d9d0 f   LIBCMT:_ftol2_.obj
 0001:0001c9d9       __ftol2_pentium4           1001d9d9 f   LIBCMT:_ftol2_.obj
 0001:0001c9ec       __ftol2_sse_excpt          1001d9ec f   LIBCMT:_ftol2_.obj
 0001:0001ca10       __ftol2                    1001da10 f   LIBCMT:_ftol2_.obj
 0001:0001ca90       _memcpy                    1001da90 f   libvcruntime:memcpy.obj
 0001:0001d010       _strchr                    1001e010 f   libvcruntime:strchr.obj
 0001:0001d07e       ___from_strstr_to_strchr   1001e07e     libvcruntime:strchr.obj
 0001:0001d140       _strrchr                   1001e140 f   libvcruntime:strrchr.obj
 0001:0001d280       __ftoui3                   1001e280 f   LIBCMT:_ftol3_.obj
 0001:0001d28f       __ftoul3                   1001e28f f   LIBCMT:_ftol3_.obj
 0001:0001d29e       __ftol3                    1001e29e f   LIBCMT:_ftol3_.obj
 0001:0001d2ab       __ftol3_NaN                1001e2ab f   LIBCMT:_ftol3_.obj
 0001:0001d2c3       __ftol3_work               1001e2c3 f   LIBCMT:_ftol3_.obj
 0001:0001d349       __ftol3_common             1001e349 f   LIBCMT:_ftol3_.obj
 0001:0001d40b       __ftol3_arg_error          1001e40b f   LIBCMT:_ftol3_.obj
 0001:0001d41d       __ftol3_except             1001e41d f   LIBCMT:_ftol3_.obj
 0001:0001d461       __dtoui3                   1001e461 f   LIBCMT:_ftol3_.obj
 0001:0001d470       __dtoul3                   1001e470 f   LIBCMT:_ftol3_.obj
 0001:0001d47f       __dtol3                    1001e47f f   LIBCMT:_ftol3_.obj
 0001:0001d48c       __dtol3_NaN                1001e48c f   LIBCMT:_ftol3_.obj
 0001:0001d4a9       __dtol3_work               1001e4a9 f   LIBCMT:_ftol3_.obj
 0001:0001d590       __ultod3                   1001e590 f   LIBCMT:_ftol3_.obj
 0001:0001d5d0       __ltod3                    1001e5d0 f   LIBCMT:_ftol3_.obj
 0002:00000000       __imp__CreateMutexA@12     1001f000     kernel32:KERNEL32.dll
 0002:00000004       __imp__WaitForSingleObject@8 1001f004     kernel32:KERNEL32.dll
 0002:00000008       __imp__ReleaseMutex@4      1001f008     kernel32:KERNEL32.dll
 0002:0000000c       __imp__CloseHandle@4       1001f00c     kernel32:KERNEL32.dll
 0002:00000010       __imp__CreateFileW@28      1001f010     kernel32:KERNEL32.dll
 0002:00000014       __imp__SetFilePointerEx@20 1001f014     kernel32:KERNEL32.dll
 0002:00000018       __imp__SetStdHandle@8      1001f018     kernel32:KERNEL32.dll
 0002:0000001c       __imp__HeapReAlloc@16      1001f01c     kernel32:KERNEL32.dll
 0002:00000020       __imp__HeapSize@12         1001f020     kernel32:KERNEL32.dll
 0002:00000024       __imp__GetConsoleMode@8    1001f024     kernel32:KERNEL32.dll
 0002:00000028       __imp__GetConsoleCP@0      1001f028     kernel32:KERNEL32.dll
 0002:0000002c       __imp__FlushFileBuffers@4  1001f02c     kernel32:KERNEL32.dll
 0002:00000030       __imp__GetStringTypeW@16   1001f030     kernel32:KERNEL32.dll
 0002:00000034       __imp__GetProcessHeap@0    1001f034     kernel32:KERNEL32.dll
 0002:00000038       __imp__FreeEnvironmentStringsW@4 1001f038     kernel32:KERNEL32.dll
 0002:0000003c       __imp__GetEnvironmentStringsW@0 1001f03c     kernel32:KERNEL32.dll
 0002:00000040       __imp__GetCommandLineW@0   1001f040     kernel32:KERNEL32.dll
 0002:00000044       __imp__GetCommandLineA@0   1001f044     kernel32:KERNEL32.dll
 0002:00000048       __imp__GetCPInfo@8         1001f048     kernel32:KERNEL32.dll
 0002:0000004c       __imp__GetOEMCP@0          1001f04c     kernel32:KERNEL32.dll
 0002:00000050       __imp__IsValidCodePage@4   1001f050     kernel32:KERNEL32.dll
 0002:00000054       __imp__FindNextFileA@8     1001f054     kernel32:KERNEL32.dll
 0002:00000058       __imp__FindFirstFileExA@24 1001f058     kernel32:KERNEL32.dll
 0002:0000005c       __imp__FindClose@4         1001f05c     kernel32:KERNEL32.dll
 0002:00000060       __imp__LCMapStringW@24     1001f060     kernel32:KERNEL32.dll
 0002:00000064       __imp__CreateThread@24     1001f064     kernel32:KERNEL32.dll
 0002:00000068       __imp__WaitForSingleObjectEx@12 1001f068     kernel32:KERNEL32.dll
 0002:0000006c       __imp__OutputDebugStringW@4 1001f06c     kernel32:KERNEL32.dll
 0002:00000070       __imp__WriteFile@20        1001f070     kernel32:KERNEL32.dll
 0002:00000074       __imp__GetACP@0            1001f074     kernel32:KERNEL32.dll
 0002:00000078       __imp__HeapAlloc@12        1001f078     kernel32:KERNEL32.dll
 0002:0000007c       __imp__HeapFree@12         1001f07c     kernel32:KERNEL32.dll
 0002:00000080       __imp__WideCharToMultiByte@32 1001f080     kernel32:KERNEL32.dll
 0002:00000084       __imp__MultiByteToWideChar@24 1001f084     kernel32:KERNEL32.dll
 0002:00000088       __imp__ExitProcess@4       1001f088     kernel32:KERNEL32.dll
 0002:0000008c       __imp__WriteConsoleW@20    1001f08c     kernel32:KERNEL32.dll
 0002:00000090       __imp__GetModuleHandleExW@12 1001f090     kernel32:KERNEL32.dll
 0002:00000094       __imp__GetModuleFileNameW@12 1001f094     kernel32:KERNEL32.dll
 0002:00000098       __imp__GetModuleFileNameA@12 1001f098     kernel32:KERNEL32.dll
 0002:0000009c       __imp__GetFileType@4       1001f09c     kernel32:KERNEL32.dll
 0002:000000a0       __imp__GetStdHandle@4      1001f0a0     kernel32:KERNEL32.dll
 0002:000000a4       __imp__RtlUnwind@16        1001f0a4     kernel32:KERNEL32.dll
 0002:000000a8       __imp__LoadLibraryExW@12   1001f0a8     kernel32:KERNEL32.dll
 0002:000000ac       __imp__GetProcAddress@8    1001f0ac     kernel32:KERNEL32.dll
 0002:000000b0       __imp__FreeLibrary@4       1001f0b0     kernel32:KERNEL32.dll
 0002:000000b4       __imp__TlsFree@4           1001f0b4     kernel32:KERNEL32.dll
 0002:000000b8       __imp__TlsSetValue@8       1001f0b8     kernel32:KERNEL32.dll
 0002:000000bc       __imp__TlsGetValue@4       1001f0bc     kernel32:KERNEL32.dll
 0002:000000c0       __imp__TlsAlloc@0          1001f0c0     kernel32:KERNEL32.dll
 0002:000000c4       __imp__InitializeCriticalSectionAndSpinCount@8 1001f0c4     kernel32:KERNEL32.dll
 0002:000000c8       __imp__DeleteCriticalSection@4 1001f0c8     kernel32:KERNEL32.dll
 0002:000000cc       __imp__LeaveCriticalSection@4 1001f0cc     kernel32:KERNEL32.dll
 0002:000000d0       __imp__EnterCriticalSection@4 1001f0d0     kernel32:KERNEL32.dll
 0002:000000d4       __imp__SetLastError@4      1001f0d4     kernel32:KERNEL32.dll
 0002:000000d8       __imp__GetLastError@0      1001f0d8     kernel32:KERNEL32.dll
 0002:000000dc       __imp__InterlockedFlushSList@4 1001f0dc     kernel32:KERNEL32.dll
 0002:000000e0       __imp__RaiseException@16   1001f0e0     kernel32:KERNEL32.dll
 0002:000000e4       __imp__InitializeSListHead@4 1001f0e4     kernel32:KERNEL32.dll
 0002:000000e8       __imp__GetSystemTimeAsFileTime@4 1001f0e8     kernel32:KERNEL32.dll
 0002:000000ec       __imp__GetCurrentThreadId@0 1001f0ec     kernel32:KERNEL32.dll
 0002:000000f0       __imp__GetCurrentProcessId@0 1001f0f0     kernel32:KERNEL32.dll
 0002:000000f4       __imp__QueryPerformanceCounter@4 1001f0f4     kernel32:KERNEL32.dll
 0002:000000f8       __imp__GetModuleHandleW@4  1001f0f8     kernel32:KERNEL32.dll
 0002:000000fc       __imp__GetStartupInfoW@4   1001f0fc     kernel32:KERNEL32.dll
 0002:00000100       __imp__IsDebuggerPresent@0 1001f100     kernel32:KERNEL32.dll
 0002:00000104       __imp__IsProcessorFeaturePresent@4 1001f104     kernel32:KERNEL32.dll
 0002:00000108       __imp__TerminateProcess@8  1001f108     kernel32:KERNEL32.dll
 0002:0000010c       __imp__GetCurrentProcess@0 1001f10c     kernel32:KERNEL32.dll
 0002:00000110       __imp__SetUnhandledExceptionFilter@4 1001f110     kernel32:KERNEL32.dll
 0002:00000114       __imp__UnhandledExceptionFilter@4 1001f114     kernel32:KERNEL32.dll
 0002:00000118       __imp__DecodePointer@4     1001f118     kernel32:KERNEL32.dll
 0002:0000011c       \177KERNEL32_NULL_THUNK_DATA 1001f11c     kernel32:KERNEL32.dll
 0002:00000120       __imp_?IsNumber@Value@v8@@QBE_NXZ 1001f120     iojs:node.dll
 0002:00000124       __imp_?IsBoolean@Value@v8@@QBE_NXZ 1001f124     iojs:node.dll
 0002:00000128       __imp_?IsObject@Value@v8@@QBE_NXZ 1001f128     iojs:node.dll
 0002:0000012c       __imp_?IsArray@Value@v8@@QBE_NXZ 1001f12c     iojs:node.dll
 0002:00000130       __imp_?New@Object@v8@@SA?AV?$Local@VObject@v8@@@2@PAVIsolate@2@@Z 1001f130     iojs:node.dll
 0002:00000134       __imp_?GetPropertyNames@Object@v8@@QAE?AV?$MaybeLocal@VArray@v8@@@2@V?$Local@VContext@v8@@@2@@Z 1001f134     iojs:node.dll
 0002:00000138       __imp_?Get@Object@v8@@QAE?AV?$MaybeLocal@VValue@v8@@@2@V?$Local@VContext@v8@@@2@I@Z 1001f138     iojs:node.dll
 0002:0000013c       __imp_?Set@Object@v8@@QAE?AV?$Maybe@_N@2@V?$Local@VContext@v8@@@2@IV?$Local@VValue@v8@@@2@@Z 1001f13c     iojs:node.dll
 0002:00000140       __imp_?HasInstance@Buffer@node@@YA_NV?$Local@VValue@v8@@@v8@@@Z 1001f140     iojs:node.dll
 0002:00000144       __imp_?Data@Buffer@node@@YAPADV?$Local@VObject@v8@@@v8@@@Z 1001f144     iojs:node.dll
 0002:00000148       __imp_?Copy@Buffer@node@@YA?AV?$MaybeLocal@VObject@v8@@@v8@@PAVIsolate@4@PBDI@Z 1001f148     iojs:node.dll
 0002:0000014c       __imp_?Length@Buffer@node@@YAIV?$Local@VObject@v8@@@v8@@@Z 1001f14c     iojs:node.dll
 0002:00000150       __imp_?GetCurrent@Isolate@v8@@SAPAV12@XZ 1001f150     iojs:node.dll
 0002:00000154       __imp_??1HandleScope@v8@@QAE@XZ 1001f154     iojs:node.dll
 0002:00000158       __imp_??0HandleScope@v8@@QAE@PAVIsolate@1@@Z 1001f158     iojs:node.dll
 0002:0000015c       __imp_?New@FunctionTemplate@v8@@SA?AV?$Local@VFunctionTemplate@v8@@@2@PAVIsolate@2@P6AXABV?$FunctionCallbackInfo@VValue@v8@@@2@@ZV?$Local@VValue@v8@@@2@V?$Local@VSignature@v8@@@2@HW4ConstructorBehavior@2@@Z 1001f15c     iojs:node.dll
 0002:00000160       __imp_?IsDate@Value@v8@@QBE_NXZ 1001f160     iojs:node.dll
 0002:00000164       __imp__uv_queue_work       1001f164     iojs:node.dll
 0002:00000168       __imp_?Value@External@v8@@QBEPAXXZ 1001f168     iojs:node.dll
 0002:0000016c       __imp_?New@External@v8@@SA?AV?$Local@VExternal@v8@@@2@PAVIsolate@2@PAX@Z 1001f16c     iojs:node.dll
 0002:00000170       __imp_?New@Integer@v8@@SA?AV?$Local@VInteger@v8@@@2@PAVIsolate@2@H@Z 1001f170     iojs:node.dll
 0002:00000174       __imp_?New@Signature@v8@@SA?AV?$Local@VSignature@v8@@@2@PAVIsolate@2@V?$Local@VFunctionTemplate@v8@@@2@@Z 1001f174     iojs:node.dll
 0002:00000178       __imp_?ThrowException@Isolate@v8@@QAE?AV?$Local@VValue@v8@@@2@V32@@Z 1001f178     iojs:node.dll
 0002:0000017c       __imp_?GetCurrentContext@Isolate@v8@@QAE?AV?$Local@VContext@v8@@@2@XZ 1001f17c     iojs:node.dll
 0002:00000180       __imp_?CreateHandle@HandleScope@v8@@KAPAPAVObject@internal@2@PAVIsolate@42@PAV342@@Z 1001f180     iojs:node.dll
 0002:00000184       __imp_?CreateHandle@HandleScope@v8@@CAPAPAVObject@internal@2@PAVHeapObject@42@PAV342@@Z 1001f184     iojs:node.dll
 0002:00000188       __imp_?Set@Template@v8@@QAEXV?$Local@VName@v8@@@2@V?$Local@VData@v8@@@2@W4PropertyAttribute@2@@Z 1001f188     iojs:node.dll
 0002:0000018c       __imp_?Error@Exception@v8@@SA?AV?$Local@VValue@v8@@@2@V?$Local@VString@v8@@@2@@Z 1001f18c     iojs:node.dll
 0002:00000190       __imp_?TypeError@Exception@v8@@SA?AV?$Local@VValue@v8@@@2@V?$Local@VString@v8@@@2@@Z 1001f190     iojs:node.dll
 0002:00000194       __imp_?SetClassName@FunctionTemplate@v8@@QAEXV?$Local@VString@v8@@@2@@Z 1001f194     iojs:node.dll
 0002:00000198       __imp_?PrototypeTemplate@FunctionTemplate@v8@@QAE?AV?$Local@VObjectTemplate@v8@@@2@XZ 1001f198     iojs:node.dll
 0002:0000019c       __imp_?InstanceTemplate@FunctionTemplate@v8@@QAE?AV?$Local@VObjectTemplate@v8@@@2@XZ 1001f19c     iojs:node.dll
 0002:000001a0       __imp_?GetFunction@FunctionTemplate@v8@@QAE?AV?$MaybeLocal@VFunction@v8@@@2@V?$Local@VContext@v8@@@2@@Z 1001f1a0     iojs:node.dll
 0002:000001a4       __imp_?ToLocalEmpty@V8@v8@@CAXXZ 1001f1a4     iojs:node.dll
 0002:000001a8       __imp_?FromJustIsNothing@V8@v8@@CAXXZ 1001f1a8     iojs:node.dll
 0002:000001ac       __imp_?ClearWeak@V8@v8@@CAPAXPAPAVObject@internal@2@@Z 1001f1ac     iojs:node.dll
 0002:000001b0       __imp_?MakeWeak@V8@v8@@CAXPAPAVObject@internal@2@PAXP6AXABV?$WeakCallbackInfo@X@2@@ZW4WeakCallbackType@2@@Z 1001f1b0     iojs:node.dll
 0002:000001b4       __imp_?DisposeGlobal@V8@v8@@CAXPAPAVObject@internal@2@@Z 1001f1b4     iojs:node.dll
 0002:000001b8       __imp_?GlobalizeReference@V8@v8@@CAPAPAVObject@internal@2@PAVIsolate@42@PAPAV342@@Z 1001f1b8     iojs:node.dll
 0002:000001bc       __imp_?Equals@Value@v8@@QBE?AV?$Maybe@_N@2@V?$Local@VContext@v8@@@2@V?$Local@VValue@v8@@@2@@Z 1001f1bc     iojs:node.dll
 0002:000001c0       __imp_?Int32Value@Value@v8@@QBE?AV?$Maybe@H@2@V?$Local@VContext@v8@@@2@@Z 1001f1c0     iojs:node.dll
 0002:000001c4       __imp_?ToInt32@Value@v8@@QBE?AV?$MaybeLocal@VInt32@v8@@@2@V?$Local@VContext@v8@@@2@@Z 1001f1c4     iojs:node.dll
 0002:000001c8       __imp_?ToString@Value@v8@@QBE?AV?$MaybeLocal@VString@v8@@@2@V?$Local@VContext@v8@@@2@@Z 1001f1c8     iojs:node.dll
 0002:000001cc       __imp_?IsInt32@Value@v8@@QBE_NXZ 1001f1cc     iojs:node.dll
 0002:000001d0       __imp_?IsFunction@Value@v8@@QBE_NXZ 1001f1d0     iojs:node.dll
 0002:000001d4       __imp_?Escape@EscapableHandleScope@v8@@AAEPAPAVObject@internal@2@PAPAV342@@Z 1001f1d4     iojs:node.dll
 0002:000001d8       __imp_?IsRegExp@Value@v8@@QBE_NXZ 1001f1d8     iojs:node.dll
 0002:000001dc       __imp_?ToObject@Value@v8@@QBE?AV?$MaybeLocal@VObject@v8@@@2@V?$Local@VContext@v8@@@2@@Z 1001f1dc     iojs:node.dll
 0002:000001e0       __imp_?BooleanValue@Value@v8@@QBE?AV?$Maybe@_N@2@V?$Local@VContext@v8@@@2@@Z 1001f1e0     iojs:node.dll
 0002:000001e4       __imp_?NumberValue@Value@v8@@QBE?AV?$Maybe@N@2@V?$Local@VContext@v8@@@2@@Z 1001f1e4     iojs:node.dll
 0002:000001e8       __imp_?HasInstance@FunctionTemplate@v8@@QAE_NV?$Local@VValue@v8@@@2@@Z 1001f1e8     iojs:node.dll
 0002:000001ec       __imp_?Length@Array@v8@@QBEIXZ 1001f1ec     iojs:node.dll
 0002:000001f0       __imp_?New@Array@v8@@SA?AV?$Local@VArray@v8@@@2@PAVIsolate@2@H@Z 1001f1f0     iojs:node.dll
 0002:000001f4       __imp__node_module_register 1001f1f4     iojs:node.dll
 0002:000001f8       __imp_?ForceSet@Object@v8@@QAE?AV?$Maybe@_N@2@V?$Local@VContext@v8@@@2@V?$Local@VValue@v8@@@2@1W4PropertyAttribute@2@@Z 1001f1f8     iojs:node.dll
 0002:000001fc       __imp_?ToInteger@Value@v8@@QBE?AV?$MaybeLocal@VInteger@v8@@@2@V?$Local@VContext@v8@@@2@@Z 1001f1fc     iojs:node.dll
 0002:00000200       __imp_?ToString@Value@v8@@QBE?AV?$Local@VString@v8@@@2@XZ 1001f200     iojs:node.dll
 0002:00000204       __imp__uv_default_loop     1001f204     iojs:node.dll
 0002:00000208       __imp__uv_async_init       1001f208     iojs:node.dll
 0002:0000020c       __imp__uv_async_send       1001f20c     iojs:node.dll
 0002:00000210       __imp_?MakeCallback@node@@YA?AV?$Local@VValue@v8@@@v8@@PAVIsolate@3@V?$Local@VObject@v8@@@3@V?$Local@VFunction@v8@@@3@HPAV23@@Z 1001f210     iojs:node.dll
 0002:00000214       __imp__uv_close            1001f214     iojs:node.dll
 0002:00000218       __imp_?New@ObjectTemplate@v8@@SA?AV?$Local@VObjectTemplate@v8@@@2@PAVIsolate@2@V?$Local@VFunctionTemplate@v8@@@2@@Z 1001f218     iojs:node.dll
 0002:0000021c       __imp_?NewInstance@ObjectTemplate@v8@@QAE?AV?$MaybeLocal@VObject@v8@@@2@V?$Local@VContext@v8@@@2@@Z 1001f21c     iojs:node.dll
 0002:00000220       __imp_?SetAccessor@ObjectTemplate@v8@@QAEXV?$Local@VName@v8@@@2@P6AX0ABV?$PropertyCallbackInfo@VValue@v8@@@2@@ZP6AX0V?$Local@VValue@v8@@@2@ABV?$PropertyCallbackInfo@X@2@@Z3W4AccessControl@2@W4PropertyAttribute@2@V?$Local@VAccessorSignature@v8@@@2@@Z 1001f220     iojs:node.dll
 0002:00000224       __imp_?SetInternalFieldCount@ObjectTemplate@v8@@QAEXH@Z 1001f224     iojs:node.dll
 0002:00000228       __imp_?Set@Object@v8@@QAE?AV?$Maybe@_N@2@V?$Local@VContext@v8@@@2@V?$Local@VValue@v8@@@2@1@Z 1001f228     iojs:node.dll
 0002:0000022c       __imp_?ForceSet@Object@v8@@QAE_NV?$Local@VValue@v8@@@2@0W4PropertyAttribute@2@@Z 1001f22c     iojs:node.dll
 0002:00000230       __imp_?Get@Object@v8@@QAE?AV?$MaybeLocal@VValue@v8@@@2@V?$Local@VContext@v8@@@2@V?$Local@VValue@v8@@@2@@Z 1001f230     iojs:node.dll
 0002:00000234       __imp_?InternalFieldCount@Object@v8@@QAEHXZ 1001f234     iojs:node.dll
 0002:00000238       __imp_?SetInternalField@Object@v8@@QAEXHV?$Local@VValue@v8@@@2@@Z 1001f238     iojs:node.dll
 0002:0000023c       __imp_?SetAlignedPointerInInternalField@Object@v8@@QAEXHPAX@Z 1001f23c     iojs:node.dll
 0002:00000240       __imp_?SlowGetInternalField@Object@v8@@AAE?AV?$Local@VValue@v8@@@2@H@Z 1001f240     iojs:node.dll
 0002:00000244       __imp_?SlowGetAlignedPointerFromInternalField@Object@v8@@AAEPAXH@Z 1001f244     iojs:node.dll
 0002:00000248       __imp_?New@Number@v8@@SA?AV?$Local@VNumber@v8@@@2@PAVIsolate@2@N@Z 1001f248     iojs:node.dll
 0002:0000024c       __imp_?Length@String@v8@@QBEHXZ 1001f24c     iojs:node.dll
 0002:00000250       __imp_?WriteUtf8@String@v8@@QBEHPADHPAHH@Z 1001f250     iojs:node.dll
 0002:00000254       __imp_?NewFromUtf8@String@v8@@SA?AV?$MaybeLocal@VString@v8@@@2@PAVIsolate@2@PBDW4NewStringType@2@H@Z 1001f254     iojs:node.dll
 0002:00000258       __imp_?Concat@String@v8@@SA?AV?$Local@VString@v8@@@2@V32@0@Z 1001f258     iojs:node.dll
 0002:0000025c       __imp_??0EscapableHandleScope@v8@@QAE@PAVIsolate@1@@Z 1001f25c     iojs:node.dll
 0002:00000260       \177node_NULL_THUNK_DATA   1001f260     iojs:node.dll
 0002:00000264       __imp__sqlite3_mutex_leave 1001f264     sqlite3:sqlite3.dll
 0002:00000268       __imp__sqlite3_reset       1001f268     sqlite3:sqlite3.dll
 0002:0000026c       __imp__sqlite3_clear_bindings 1001f26c     sqlite3:sqlite3.dll
 0002:00000270       __imp__sqlite3_column_double 1001f270     sqlite3:sqlite3.dll
 0002:00000274       __imp__sqlite3_column_blob 1001f274     sqlite3:sqlite3.dll
 0002:00000278       __imp__sqlite3_bind_int    1001f278     sqlite3:sqlite3.dll
 0002:0000027c       __imp__sqlite3_mutex_enter 1001f27c     sqlite3:sqlite3.dll
 0002:00000280       __imp__sqlite3_step        1001f280     sqlite3:sqlite3.dll
 0002:00000284       __imp__sqlite3_column_name 1001f284     sqlite3:sqlite3.dll
 0002:00000288       __imp__sqlite3_column_bytes 1001f288     sqlite3:sqlite3.dll
 0002:0000028c       __imp__sqlite3_bind_null   1001f28c     sqlite3:sqlite3.dll
 0002:00000290       __imp__sqlite3_column_int64 1001f290     sqlite3:sqlite3.dll
 0002:00000294       __imp__sqlite3_prepare_v2  1001f294     sqlite3:sqlite3.dll
 0002:00000298       __imp__sqlite3_bind_text   1001f298     sqlite3:sqlite3.dll
 0002:0000029c       __imp__sqlite3_column_type 1001f29c     sqlite3:sqlite3.dll
 0002:000002a0       __imp__sqlite3_db_mutex    1001f2a0     sqlite3:sqlite3.dll
 0002:000002a4       __imp__sqlite3_bind_parameter_index 1001f2a4     sqlite3:sqlite3.dll
 0002:000002a8       __imp__sqlite3_column_count 1001f2a8     sqlite3:sqlite3.dll
 0002:000002ac       __imp__sqlite3_bind_blob   1001f2ac     sqlite3:sqlite3.dll
 0002:000002b0       __imp__sqlite3_finalize    1001f2b0     sqlite3:sqlite3.dll
 0002:000002b4       __imp__sqlite3_changes     1001f2b4     sqlite3:sqlite3.dll
 0002:000002b8       __imp__sqlite3_last_insert_rowid 1001f2b8     sqlite3:sqlite3.dll
 0002:000002bc       __imp__sqlite3_column_text 1001f2bc     sqlite3:sqlite3.dll
 0002:000002c0       __imp__sqlite3_bind_double 1001f2c0     sqlite3:sqlite3.dll
 0002:000002c4       __imp__sqlite3_errmsg      1001f2c4     sqlite3:sqlite3.dll
 0002:000002c8       __imp__sqlite3_trace       1001f2c8     sqlite3:sqlite3.dll
 0002:000002cc       __imp__sqlite3_enable_load_extension 1001f2cc     sqlite3:sqlite3.dll
 0002:000002d0       __imp__sqlite3_profile     1001f2d0     sqlite3:sqlite3.dll
 0002:000002d4       __imp__sqlite3_exec        1001f2d4     sqlite3:sqlite3.dll
 0002:000002d8       __imp__sqlite3_key_v2      1001f2d8     sqlite3:sqlite3.dll
 0002:000002dc       __imp__sqlite3_close       1001f2dc     sqlite3:sqlite3.dll
 0002:000002e0       __imp__sqlite3_open_v2     1001f2e0     sqlite3:sqlite3.dll
 0002:000002e4       __imp__sqlite3_busy_timeout 1001f2e4     sqlite3:sqlite3.dll
 0002:000002e8       __imp__sqlite3_free        1001f2e8     sqlite3:sqlite3.dll
 0002:000002ec       __imp__sqlite3_interrupt   1001f2ec     sqlite3:sqlite3.dll
 0002:000002f0       __imp__sqlite3_load_extension 1001f2f0     sqlite3:sqlite3.dll
 0002:000002f4       \177sqlite3_NULL_THUNK_DATA 1001f2f4     sqlite3:sqlite3.dll
 0002:000002f8       ___guard_check_icall_fptr  1001f2f8     LIBCMT:guard_support.obj
 0002:000002fc       ___xc_a                    1001f2fc     LIBCMT:initializers.obj
 0002:00000308       __register_node_sqlite3_   1001f308     node_sqlite3.obj
 0002:0000030c       ___xc_z                    1001f30c     LIBCMT:initializers.obj
 0002:00000310       ___xi_a                    1001f310     LIBCMT:initializers.obj
 0002:00000314       ___acrt_stdio_initializer  1001f314     libucrt:stdio_initializer.obj
 0002:00000318       ___acrt_multibyte_initializer 1001f318     libucrt:multibyte_initializer.obj
 0002:0000031c       ___acrt_tran_sse2_initializer 1001f31c     libucrt:sse2_initializer.obj
 0002:00000320       ___xi_z                    1001f320     LIBCMT:initializers.obj
 0002:00000324       ___xp_a                    1001f324     LIBCMT:initializers.obj
 0002:00000328       ___acrt_locale_terminator  1001f328     libucrt:locale_initializer.obj
 0002:0000032c       ___dcrt_console_output_terminator 1001f32c     libucrt:console_output_initializer.obj
 0002:00000330       ___acrt_stdio_terminator   1001f330     libucrt:stdio_initializer.obj
 0002:00000334       ___xp_z                    1001f334     LIBCMT:initializers.obj
 0002:00000338       ___xt_a                    1001f338     LIBCMT:initializers.obj
 0002:0000033c       ___xt_z                    1001f33c     LIBCMT:initializers.obj
 0002:00000344       ??_7exception@std@@6B@     1001f344     libcpmt:xthrow.obj
 0002:0000034c       ??_C@_0BC@EOODALEL@Unknown?5exception?$AA@ 1001f34c     libcpmt:xthrow.obj
 0002:00000364       ??_7bad_alloc@std@@6B@     1001f364     libcpmt:xthrow.obj
 0002:0000036c       ??_C@_0P@GHFPNOJB@bad?5allocation?$AA@ 1001f36c     libcpmt:xthrow.obj
 0002:00000380       ??_7logic_error@std@@6B@   1001f380     libcpmt:xthrow.obj
 0002:0000038c       ??_7length_error@std@@6B@  1001f38c     libcpmt:xthrow.obj
 0002:00000398       ??_7out_of_range@std@@6B@  1001f398     libcpmt:xthrow.obj
 0002:000003a0       __pRawDllMain              1001f3a0     LIBCMT:dll_dllmain.obj
 0002:000003a0       __pDefaultRawDllMain       1001f3a0     LIBCMT:dll_dllmain.obj
 0002:000003a8       ??_7type_info@@6B@         1001f3a8     LIBCMT:std_type_info_static.obj
 0002:000003b8       ??_7bad_array_new_length@std@@6B@ 1001f3b8     LIBCMT:throw_bad_alloc.obj
 0002:000003c0       ??_C@_0BF@KINCDENJ@bad?5array?5new?5length?$AA@ 1001f3c0     LIBCMT:throw_bad_alloc.obj
 0002:00000408       ??_C@_1BC@DNHGCMLG@?$AAa?$AAd?$AAv?$AAa?$AAp?$AAi?$AA3?$AA2?$AA?$AA@ 1001f408     libvcruntime:winapi_downlevel.obj
 0002:0000041c       ??_C@_1DM@KHCHBNEB@?$AAa?$AAp?$AAi?$AA?9?$AAm?$AAs?$AA?9?$AAw?$AAi?$AAn?$AA?9?$AAc?$AAo?$AAr?$AAe?$AA?9?$AAf?$AAi?$AAb?$AAe?$AAr?$AAs?$AA?9?$AAl?$AA1?$AA?9?$AA1?$AA?9?$AA1?$AA?$AA@ 1001f41c     libvcruntime:winapi_downlevel.obj
 0002:00000458       ??_C@_1DK@LPPGFMPP@?$AAa?$AAp?$AAi?$AA?9?$AAm?$AAs?$AA?9?$AAw?$AAi?$AAn?$AA?9?$AAc?$AAo?$AAr?$AAe?$AA?9?$AAs?$AAy?$AAn?$AAc?$AAh?$AA?9?$AAl?$AA1?$AA?9?$AA2?$AA?9?$AA0?$AA?$AA@ 1001f458     libvcruntime:winapi_downlevel.obj
 0002:00000494       ??_C@_1BC@GDMECMAK@?$AAk?$AAe?$AAr?$AAn?$AAe?$AAl?$AA3?$AA2?$AA?$AA@ 1001f494     libvcruntime:winapi_downlevel.obj
 0002:000004b0       ??_C@_08KNHFBNJ@FlsAlloc?$AA@ 1001f4b0     libvcruntime:winapi_downlevel.obj
 0002:000004c4       ??_C@_07PEJMOBNF@FlsFree?$AA@ 1001f4c4     libvcruntime:winapi_downlevel.obj
 0002:000004d4       ??_C@_0M@GDNOONDI@FlsGetValue?$AA@ 1001f4d4     libvcruntime:winapi_downlevel.obj
 0002:000004e8       ??_C@_0M@JCPCPOEF@FlsSetValue?$AA@ 1001f4e8     libvcruntime:winapi_downlevel.obj
 0002:000004fc       ??_C@_0BM@HCFOFFN@InitializeCriticalSectionEx?$AA@ 1001f4fc     libvcruntime:winapi_downlevel.obj
 0002:000006a8       ??_C@_08EHJDFFNH@__based?$CI?$AA@ 1001f6a8     libvcruntime:undname.obj
 0002:000006b4       ??_C@_07KOLFKCDI@__cdecl?$AA@ 1001f6b4     libvcruntime:undname.obj
 0002:000006bc       ??_C@_08GHMPAG@__pascal?$AA@ 1001f6bc     libvcruntime:undname.obj
 0002:000006c8       ??_C@_09IFJBGAPI@__stdcall?$AA@ 1001f6c8     libvcruntime:undname.obj
 0002:000006d4       ??_C@_0L@NPHFGOKO@__thiscall?$AA@ 1001f6d4     libvcruntime:undname.obj
 0002:000006e0       ??_C@_0L@JMKHOMEK@__fastcall?$AA@ 1001f6e0     libvcruntime:undname.obj
 0002:000006ec       ??_C@_0N@BCKKPABJ@__vectorcall?$AA@ 1001f6ec     libvcruntime:undname.obj
 0002:000006fc       ??_C@_09HIJEGCPM@__clrcall?$AA@ 1001f6fc     libvcruntime:undname.obj
 0002:00000708       ??_C@_06GHPCKEAG@__eabi?$AA@ 1001f708     libvcruntime:undname.obj
 0002:00000710       ??_C@_07JOMMBBKO@__ptr64?$AA@ 1001f710     libvcruntime:undname.obj
 0002:00000718       ??_C@_0L@PILCLIHE@__restrict?$AA@ 1001f718     libvcruntime:undname.obj
 0002:00000724       ??_C@_0M@GFIIJFMG@__unaligned?$AA@ 1001f724     libvcruntime:undname.obj
 0002:00000730       ??_C@_09DHDLOLLB@restrict?$CI?$AA@ 1001f730     libvcruntime:undname.obj
 0002:0000073c       ??_C@_04NIHEBCM@?5new?$AA@ 1001f73c     libvcruntime:undname.obj
 0002:00000744       ??_C@_07FPCDHGMM@?5delete?$AA@ 1001f744     libvcruntime:undname.obj
 0002:0000074c       ??_C@_01NEMOKFLO@?$DN?$AA@ 1001f74c     libvcruntime:undname.obj
 0002:00000750       ??_C@_02GPIOPFAK@?$DO?$DO?$AA@ 1001f750     libvcruntime:undname.obj
 0002:00000754       ??_C@_02FODMEDOG@?$DM?$DM?$AA@ 1001f754     libvcruntime:undname.obj
 0002:00000758       ??_C@_01DCLJPIOD@?$CB?$AA@ 1001f758     libvcruntime:undname.obj
 0002:0000075c       ??_C@_02EGOFBIJA@?$DN?$DN?$AA@ 1001f75c     libvcruntime:undname.obj
 0002:00000760       ??_C@_02FDNJECIE@?$CB?$DN?$AA@ 1001f760     libvcruntime:undname.obj
 0002:00000764       ??_C@_02GPECMEKF@?$FL?$FN?$AA@ 1001f764     libvcruntime:undname.obj
 0002:00000768       ??_C@_08LHJFAFGD@operator?$AA@ 1001f768     libvcruntime:undname.obj
 0002:00000774       ??_C@_02HBOOOICD@?9?$DO?$AA@ 1001f774     libvcruntime:undname.obj
 0002:00000778       ??_C@_01NBENCBCI@?$CK?$AA@ 1001f778     libvcruntime:undname.obj
 0002:0000077c       ??_C@_02ECNGHCIF@?$CL?$CL?$AA@ 1001f77c     libvcruntime:undname.obj
 0002:00000780       ??_C@_02BAABKJLB@?9?9?$AA@ 1001f780     libvcruntime:undname.obj
 0002:00000784       ??_C@_01JOAMLHOP@?9?$AA@   1001f784     libvcruntime:undname.obj
 0002:00000788       ??_C@_01MIFGBAGJ@?$CL?$AA@ 1001f788     libvcruntime:undname.obj
 0002:0000078c       ??_C@_01HNPIGOCE@?$CG?$AA@ 1001f78c     libvcruntime:undname.obj
 0002:00000790       ??_C@_03MNHNFDLC@?9?$DO?$CK?$AA@ 1001f790     libvcruntime:undname.obj
 0002:00000794       ??_C@_01KMDKNFGN@?1?$AA@   1001f794     libvcruntime:undname.obj
 0002:00000798       ??_C@_01FGNFDNOH@?$CF?$AA@ 1001f798     libvcruntime:undname.obj
 0002:0000079c       ??_C@_01MNNFJEPP@?$DM?$AA@ 1001f79c     libvcruntime:undname.obj
 0002:000007a0       ??_C@_02EHCHHCKH@?$DM?$DN?$AA@ 1001f7a0     libvcruntime:undname.obj
 0002:000007a4       ??_C@_01PPODPGHN@?$DO?$AA@ 1001f7a4     libvcruntime:undname.obj
 0002:000007a8       ??_C@_02EEKDKGMJ@?$DO?$DN?$AA@ 1001f7a8     libvcruntime:undname.obj
 0002:000007ac       ??_C@_01IHBHIGKO@?0?$AA@   1001f7ac     libvcruntime:undname.obj
 0002:000007b0       ??_C@_02HCKGKOFO@?$CI?$CJ?$AA@ 1001f7b0     libvcruntime:undname.obj
 0002:000007b4       ??_C@_01PJKLJHI@?$HO?$AA@  1001f7b4     libvcruntime:undname.obj
 0002:000007b8       ??_C@_01JKBOJNNK@?$FO?$AA@ 1001f7b8     libvcruntime:undname.obj
 0002:000007bc       ??_C@_01DNKMNLPK@?$HM?$AA@ 1001f7bc     libvcruntime:undname.obj
 0002:000007c0       ??_C@_02PPKAJPJL@?$CG?$CG?$AA@ 1001f7c0     libvcruntime:undname.obj
 0002:000007c4       ??_C@_02NONPIBCD@?$HM?$HM?$AA@ 1001f7c4     libvcruntime:undname.obj
 0002:000007c8       ??_C@_02FPIMKNGF@?$CK?$DN?$AA@ 1001f7c8     libvcruntime:undname.obj
 0002:000007cc       ??_C@_02FOEOMHFC@?$CL?$DN?$AA@ 1001f7cc     libvcruntime:undname.obj
 0002:000007d0       ??_C@_02FKMDLLOA@?9?$DN?$AA@ 1001f7d0     libvcruntime:undname.obj
 0002:000007d4       ??_C@_02FJEHGPIO@?1?$DN?$AA@ 1001f7d4     libvcruntime:undname.obj
 0002:000007d8       ??_C@_02FENAOKFI@?$CF?$DN?$AA@ 1001f7d8     libvcruntime:undname.obj
 0002:000007dc       ??_C@_03IKFCCPFF@?$DO?$DO?$DN?$AA@ 1001f7dc     libvcruntime:undname.obj
 0002:000007e0       ??_C@_03CDNPDDLA@?$DM?$DM?$DN?$AA@ 1001f7e0     libvcruntime:undname.obj
 0002:000007e4       ??_C@_02FGJGFEAB@?$CG?$DN?$AA@ 1001f7e4     libvcruntime:undname.obj
 0002:000007e8       ??_C@_02DHLNPPGH@?$HM?$DN?$AA@ 1001f7e8     libvcruntime:undname.obj
 0002:000007ec       ??_C@_02MHEGNOJ@?$FO?$DN?$AA@ 1001f7ec     libvcruntime:undname.obj
 0002:000007f0       ??_C@_09IFPLHPGF@?$GAvftable?8?$AA@ 1001f7f0     libvcruntime:undname.obj
 0002:000007fc       ??_C@_09BLBHBJP@?$GAvbtable?8?$AA@ 1001f7fc     libvcruntime:undname.obj
 0002:00000808       ??_C@_07FEEIOKP@?$GAvcall?8?$AA@ 1001f808     libvcruntime:undname.obj
 0002:00000810       ??_C@_08LLFFHHDJ@?$GAtypeof?8?$AA@ 1001f810     libvcruntime:undname.obj
 0002:0000081c       ??_C@_0BF@KDPPACIK@?$GAlocal?5static?5guard?8?$AA@ 1001f81c     libvcruntime:undname.obj
 0002:00000834       ??_C@_08OBABFOLI@?$GAstring?8?$AA@ 1001f834     libvcruntime:undname.obj
 0002:00000840       ??_C@_0BD@JDLKDPAB@?$GAvbase?5destructor?8?$AA@ 1001f840     libvcruntime:undname.obj
 0002:00000854       ??_C@_0BN@DEGPLNFK@?$GAvector?5deleting?5destructor?8?$AA@ 1001f854     libvcruntime:undname.obj
 0002:00000874       ??_C@_0BO@OBMKPJIG@?$GAdefault?5constructor?5closure?8?$AA@ 1001f874     libvcruntime:undname.obj
 0002:00000894       ??_C@_0BN@IMDCHIKM@?$GAscalar?5deleting?5destructor?8?$AA@ 1001f894     libvcruntime:undname.obj
 0002:000008b4       ??_C@_0BO@PFGOCPJJ@?$GAvector?5constructor?5iterator?8?$AA@ 1001f8b4     libvcruntime:undname.obj
 0002:000008d4       ??_C@_0BN@LFPFMEDL@?$GAvector?5destructor?5iterator?8?$AA@ 1001f8d4     libvcruntime:undname.obj
 0002:000008f4       ??_C@_0CE@IKBNEHA@?$GAvector?5vbase?5constructor?5iterat@ 1001f8f4     libvcruntime:undname.obj
 0002:00000918       ??_C@_0BL@NILFHHPC@?$GAvirtual?5displacement?5map?8?$AA@ 1001f918     libvcruntime:undname.obj
 0002:00000934       ??_C@_0CB@JONCMFFK@?$GAeh?5vector?5constructor?5iterator?8@ 1001f934     libvcruntime:undname.obj
 0002:00000958       ??_C@_0CA@GCEOPDGL@?$GAeh?5vector?5destructor?5iterator?8?$AA@ 1001f958     libvcruntime:undname.obj
 0002:00000978       ??_C@_0CH@OOJPLCPH@?$GAeh?5vector?5vbase?5constructor?5ite@ 1001f978     libvcruntime:undname.obj
 0002:000009a0       ??_C@_0BL@LLKPOHJI@?$GAcopy?5constructor?5closure?8?$AA@ 1001f9a0     libvcruntime:undname.obj
 0002:000009bc       ??_C@_0BA@KBCDOMBN@?$GAudt?5returning?8?$AA@ 1001f9bc     libvcruntime:undname.obj
 0002:000009cc       ??_C@_03KLGMFNMG@?$GAEH?$AA@ 1001f9cc     libvcruntime:undname.obj
 0002:000009d0       ??_C@_05KHLCHHI@?$GARTTI?$AA@ 1001f9d0     libvcruntime:undname.obj
 0002:000009d8       ??_C@_0BA@KKLDJDLB@?$GAlocal?5vftable?8?$AA@ 1001f9d8     libvcruntime:undname.obj
 0002:000009e8       ??_C@_0CE@IIHCMGGL@?$GAlocal?5vftable?5constructor?5closu@ 1001f9e8     libvcruntime:undname.obj
 0002:00000a0c       ??_C@_06FHBGPFGH@?5new?$FL?$FN?$AA@ 1001fa0c     libvcruntime:undname.obj
 0002:00000a14       ??_C@_09LBNFPBCA@?5delete?$FL?$FN?$AA@ 1001fa14     libvcruntime:undname.obj
 0002:00000a20       ??_C@_0P@HJKNJFNN@?$GAomni?5callsig?8?$AA@ 1001fa20     libvcruntime:undname.obj
 0002:00000a30       ??_C@_0BL@CNOONJFP@?$GAplacement?5delete?5closure?8?$AA@ 1001fa30     libvcruntime:undname.obj
 0002:00000a4c       ??_C@_0BN@CKNJLHMB@?$GAplacement?5delete?$FL?$FN?5closure?8?$AA@ 1001fa4c     libvcruntime:undname.obj
 0002:00000a6c       ??_C@_0CG@CFDHKGGD@?$GAmanaged?5vector?5constructor?5iter@ 1001fa6c     libvcruntime:undname.obj
 0002:00000a94       ??_C@_0CF@IMGKMJNO@?$GAmanaged?5vector?5destructor?5itera@ 1001fa94     libvcruntime:undname.obj
 0002:00000abc       ??_C@_0CG@HLDDJMAG@?$GAeh?5vector?5copy?5constructor?5iter@ 1001fabc     libvcruntime:undname.obj
 0002:00000ae4       ??_C@_0CM@FCBBDIGB@?$GAeh?5vector?5vbase?5copy?5constructo@ 1001fae4     libvcruntime:undname.obj
 0002:00000b10       ??_C@_0BL@CLIPGLGB@?$GAdynamic?5initializer?5for?5?8?$AA@ 1001fb10     libvcruntime:undname.obj
 0002:00000b2c       ??_C@_0CB@PDBIFEP@?$GAdynamic?5atexit?5destructor?5for?5?8@ 1001fb2c     libvcruntime:undname.obj
 0002:00000b50       ??_C@_0CD@CGAJBKEJ@?$GAvector?5copy?5constructor?5iterato@ 1001fb50     libvcruntime:undname.obj
 0002:00000b74       ??_C@_0CJ@GJELGAMM@?$GAvector?5vbase?5copy?5constructor?5i@ 1001fb74     libvcruntime:undname.obj
 0002:00000ba0       ??_C@_0CL@FGIJHLCE@?$GAmanaged?5vector?5copy?5constructor@ 1001fba0     libvcruntime:undname.obj
 0002:00000bcc       ??_C@_0BM@PMGGMLDN@?$GAlocal?5static?5thread?5guard?8?$AA@ 1001fbcc     libvcruntime:undname.obj
 0002:00000be8       ??_C@_0N@BDNMDMOL@operator?5?$CC?$CC?5?$AA@ 1001fbe8     libvcruntime:undname.obj
 0002:00000bf8       ??_C@_0BC@DAFEJGAK@?5Type?5Descriptor?8?$AA@ 1001fbf8     libvcruntime:undname.obj
 0002:00000c0c       ??_C@_0BM@LDKODKLH@?5Base?5Class?5Descriptor?5at?5?$CI?$AA@ 1001fc0c     libvcruntime:undname.obj
 0002:00000c28       ??_C@_0BD@LGICGFMM@?5Base?5Class?5Array?8?$AA@ 1001fc28     libvcruntime:undname.obj
 0002:00000c3c       ??_C@_0BN@MECKDCOJ@?5Class?5Hierarchy?5Descriptor?8?$AA@ 1001fc3c     libvcruntime:undname.obj
 0002:00000c5c       ??_C@_0BK@CFCOFLF@?5Complete?5Object?5Locator?8?$AA@ 1001fc5c     libvcruntime:undname.obj
 0002:00000c78       ??_C@_1EK@MBDPDCGA@?$AAM?$AAi?$AAc?$AAr?$AAo?$AAs?$AAo?$AAf?$AAt?$AA?5?$AAV?$AAi?$AAs?$AAu?$AAa?$AAl?$AA?5?$AAC?$AA?$CL?$AA?$CL?$AA?5?$AAR?$AAu?$AAn?$AAt?$AAi?$AAm?$AAe?$AA?5?$AAL?$AAi?$AAb@ 1001fc78     libucrt:assert.obj
 0002:00000cc8       ??_C@_1FE@LHBLIKM@?$AAA?$AAs?$AAs?$AAe?$AAr?$AAt?$AAi?$AAo?$AAn?$AA?5?$AAf?$AAa?$AAi?$AAl?$AAe?$AAd?$AA?3?$AA?5?$AA?$CF?$AAT?$AAs?$AA?0?$AA?5?$AAf?$AAi?$AAl?$AAe?$AA?5?$AA?$CF?$AAT?$AAs?$AA?0@ 1001fcc8     libucrt:assert.obj
 0002:00000d1c       ??_C@_1CE@OJBNHDMO@?$AAA?$AAs?$AAs?$AAe?$AAr?$AAt?$AAi?$AAo?$AAn?$AA?5?$AAf?$AAa?$AAi?$AAl?$AAe?$AAd?$AA?$CB?$AA?$AA@ 1001fd1c     libucrt:assert.obj
 0002:00000d40       ??_C@_1BE@PHKBBGE@?$AAP?$AAr?$AAo?$AAg?$AAr?$AAa?$AAm?$AA?3?$AA?5?$AA?$AA@ 1001fd40     libucrt:assert.obj
 0002:00000d54       ??_C@_1O@HEMHKNDC@?$AAF?$AAi?$AAl?$AAe?$AA?3?$AA?5?$AA?$AA@ 1001fd54     libucrt:assert.obj
 0002:00000d64       ??_C@_1O@KCAFKHJE@?$AAL?$AAi?$AAn?$AAe?$AA?3?$AA?5?$AA?$AA@ 1001fd64     libucrt:assert.obj
 0002:00000d74       ??_C@_1BK@PEDCIPMA@?$AAE?$AAx?$AAp?$AAr?$AAe?$AAs?$AAs?$AAi?$AAo?$AAn?$AA?3?$AA?5?$AA?$AA@ 1001fd74     libucrt:assert.obj
 0002:00000d90       ??_C@_1OA@EGMLFBHJ@?$AAF?$AAo?$AAr?$AA?5?$AAi?$AAn?$AAf?$AAo?$AAr?$AAm?$AAa?$AAt?$AAi?$AAo?$AAn?$AA?5?$AAo?$AAn?$AA?5?$AAh?$AAo?$AAw?$AA?5?$AAy?$AAo?$AAu?$AAr?$AA?5?$AAp?$AAr?$AAo?$AAg@ 1001fd90     libucrt:assert.obj
 0002:00000e70       ??_C@_1HK@POCJMFGK@?$AA?$CI?$AAP?$AAr?$AAe?$AAs?$AAs?$AA?5?$AAR?$AAe?$AAt?$AAr?$AAy?$AA?5?$AAt?$AAo?$AA?5?$AAd?$AAe?$AAb?$AAu?$AAg?$AA?5?$AAt?$AAh?$AAe?$AA?5?$AAa?$AAp?$AAp?$AAl?$AAi?$AAc@ 1001fe70     libucrt:assert.obj
 0002:00000eec       ??_C@_17LGKOMLJ@?$AA?4?$AA?4?$AA?4?$AA?$AA@ 1001feec     libucrt:assert.obj
 0002:00000ef4       ??_C@_13LBAGMAIH@?$AA?6?$AA?$AA@ 1001fef4     libucrt:assert.obj
 0002:00000ef8       ??_C@_15IABLJNFO@?$AA?6?$AA?6?$AA?$AA@ 1001fef8     libucrt:assert.obj
 0002:00000f00       ??_C@_1CO@EAEJAADC@?$AA?$DM?$AAp?$AAr?$AAo?$AAg?$AAr?$AAa?$AAm?$AA?5?$AAn?$AAa?$AAm?$AAe?$AA?5?$AAu?$AAn?$AAk?$AAn?$AAo?$AAw?$AAn?$AA?$DO?$AA?$AA@ 1001ff00     libucrt:assert.obj
 0002:00000f30       ___acrt_exception_action_table 1001ff30     libucrt:exception_filter.obj
 0002:00000fc0       ___acrt_signal_action_table_count 1001ffc0     libucrt:exception_filter.obj
 0002:00000fc4       ___acrt_signal_action_first_fpe_index 1001ffc4     libucrt:exception_filter.obj
 0002:00000fc8       ___acrt_signal_action_fpe_count 1001ffc8     libucrt:exception_filter.obj
 0002:00000fcc       ??_C@_1BI@BGOHAHKC@?$AAm?$AAs?$AAc?$AAo?$AAr?$AAe?$AAe?$AA?4?$AAd?$AAl?$AAl?$AA?$AA@ 1001ffcc     libucrt:exit.obj
 0002:00000fe4       ??_C@_0P@MIGLKIOC@CorExitProcess?$AA@ 1001ffe4     libucrt:exit.obj
 0002:00001070       _standard_lookup_table     10020070     libucrt:output.obj
 0002:000010cc       ??_C@_06OJHGLDPL@?$CInull?$CJ?$AA@ 100200cc     libucrt:output.obj
 0002:000010d4       ??_C@_1O@CEDCILHN@?$AA?$CI?$AAn?$AAu?$AAl?$AAl?$AA?$CJ?$AA?$AA@ 100200d4     libucrt:output.obj
 0002:00001250       ??_C@_03KOEHGMDN@Sun?$AA@  10020250     libucrt:nlsdata.obj
 0002:00001254       ??_C@_03PDAGKDH@Mon?$AA@   10020254     libucrt:nlsdata.obj
 0002:00001258       ??_C@_03NAGEINEP@Tue?$AA@  10020258     libucrt:nlsdata.obj
 0002:0000125c       ??_C@_03MHOMLAJA@Wed?$AA@  1002025c     libucrt:nlsdata.obj
 0002:00001260       ??_C@_03IOFIKPDN@Thu?$AA@  10020260     libucrt:nlsdata.obj
 0002:00001264       ??_C@_03IDIOELNC@Fri?$AA@  10020264     libucrt:nlsdata.obj
 0002:00001268       ??_C@_03FEFJNEK@Sat?$AA@   10020268     libucrt:nlsdata.obj
 0002:0000126c       ??_C@_06OOPIFAJ@Sunday?$AA@ 1002026c     libucrt:nlsdata.obj
 0002:00001274       ??_C@_06JLEDEDGH@Monday?$AA@ 10020274     libucrt:nlsdata.obj
 0002:0000127c       ??_C@_07BAAGCFCM@Tuesday?$AA@ 1002027c     libucrt:nlsdata.obj
 0002:00001284       ??_C@_09DLIGFAKA@Wednesday?$AA@ 10020284     libucrt:nlsdata.obj
 0002:00001290       ??_C@_08HACCIKIA@Thursday?$AA@ 10020290     libucrt:nlsdata.obj
 0002:0000129c       ??_C@_06JECMNKMI@Friday?$AA@ 1002029c     libucrt:nlsdata.obj
 0002:000012a4       ??_C@_08INBOOONO@Saturday?$AA@ 100202a4     libucrt:nlsdata.obj
 0002:000012b0       ??_C@_03JIHJHPIE@Jan?$AA@  100202b0     libucrt:nlsdata.obj
 0002:000012b4       ??_C@_03HJBDCHOM@Feb?$AA@  100202b4     libucrt:nlsdata.obj
 0002:000012b8       ??_C@_03ODNJBKGA@Mar?$AA@  100202b8     libucrt:nlsdata.obj
 0002:000012bc       ??_C@_03LEOLGMJP@Apr?$AA@  100202bc     libucrt:nlsdata.obj
 0002:000012c0       ??_C@_03CNMDKL@May?$AA@    100202c0     libucrt:nlsdata.obj
 0002:000012c4       ??_C@_03IDFGHECI@Jun?$AA@  100202c4     libucrt:nlsdata.obj
 0002:000012c8       ??_C@_03LBGABGKK@Jul?$AA@  100202c8     libucrt:nlsdata.obj
 0002:000012cc       ??_C@_03IFJFEIGA@Aug?$AA@  100202cc     libucrt:nlsdata.obj
 0002:000012d0       ??_C@_03GGCAPAJC@Sep?$AA@  100202d0     libucrt:nlsdata.obj
 0002:000012d4       ??_C@_03BMAOKBAD@Oct?$AA@  100202d4     libucrt:nlsdata.obj
 0002:000012d8       ??_C@_03JPJOFNIA@Nov?$AA@  100202d8     libucrt:nlsdata.obj
 0002:000012dc       ??_C@_03MKABNOCG@Dec?$AA@  100202dc     libucrt:nlsdata.obj
 0002:000012e0       ??_C@_07CGJPFGJA@January?$AA@ 100202e0     libucrt:nlsdata.obj
 0002:000012e8       ??_C@_08GNJGEPFN@February?$AA@ 100202e8     libucrt:nlsdata.obj
 0002:000012f4       ??_C@_05HPCKOFNC@March?$AA@ 100202f4     libucrt:nlsdata.obj
 0002:000012fc       ??_C@_05DMJDNLEJ@April?$AA@ 100202fc     libucrt:nlsdata.obj
 0002:00001304       ??_C@_04CNLMGBGM@June?$AA@ 10020304     libucrt:nlsdata.obj
 0002:0000130c       ??_C@_04MIEPOIFP@July?$AA@ 1002030c     libucrt:nlsdata.obj
 0002:00001314       ??_C@_06LBBHFDDG@August?$AA@ 10020314     libucrt:nlsdata.obj
 0002:0000131c       ??_C@_09BHHEALKD@September?$AA@ 1002031c     libucrt:nlsdata.obj
 0002:00001328       ??_C@_07JJNFCEND@October?$AA@ 10020328     libucrt:nlsdata.obj
 0002:00001330       ??_C@_08HCHEGEOA@November?$AA@ 10020330     libucrt:nlsdata.obj
 0002:0000133c       ??_C@_08EDHMEBNP@December?$AA@ 1002033c     libucrt:nlsdata.obj
 0002:00001348       ??_C@_02DEDBPAFC@AM?$AA@   10020348     libucrt:nlsdata.obj
 0002:0000134c       ??_C@_02CJNFDJBF@PM?$AA@   1002034c     libucrt:nlsdata.obj
 0002:00001350       ??_C@_08BPBNCDIB@MM?1dd?1yy?$AA@ 10020350     libucrt:nlsdata.obj
 0002:0000135c       ??_C@_0BE@CKGJFCPC@dddd?0?5MMMM?5dd?0?5yyyy?$AA@ 1002035c     libucrt:nlsdata.obj
 0002:00001370       ??_C@_08JCCMCCIL@HH?3mm?3ss?$AA@ 10020370     libucrt:nlsdata.obj
 0002:0000137c       ??_C@_17MBGCMIPB@?$AAS?$AAu?$AAn?$AA?$AA@ 1002037c     libucrt:nlsdata.obj
 0002:00001384       ??_C@_17KBOMKBF@?$AAM?$AAo?$AAn?$AA?$AA@ 10020384     libucrt:nlsdata.obj
 0002:0000138c       ??_C@_17BMKGEGOJ@?$AAT?$AAu?$AAe?$AA?$AA@ 1002038c     libucrt:nlsdata.obj
 0002:00001394       ??_C@_17CJEDCEPE@?$AAW?$AAe?$AAd?$AA?$AA@ 10020394     libucrt:nlsdata.obj
 0002:0000139c       ??_C@_17PDPHAADD@?$AAT?$AAh?$AAu?$AA?$AA@ 1002039c     libucrt:nlsdata.obj
 0002:000013a4       ??_C@_17HFOLPPLP@?$AAF?$AAr?$AAi?$AA?$AA@ 100203a4     libucrt:nlsdata.obj
 0002:000013ac       ??_C@_17GGIBDPIH@?$AAS?$AAa?$AAt?$AA?$AA@ 100203ac     libucrt:nlsdata.obj
 0002:000013b4       ??_C@_1O@IHNHDHPB@?$AAS?$AAu?$AAn?$AAd?$AAa?$AAy?$AA?$AA@ 100203b4     libucrt:nlsdata.obj
 0002:000013c4       ??_C@_1O@MMNBFLIA@?$AAM?$AAo?$AAn?$AAd?$AAa?$AAy?$AA?$AA@ 100203c4     libucrt:nlsdata.obj
 0002:000013d4       ??_C@_1BA@ENFBFFEK@?$AAT?$AAu?$AAe?$AAs?$AAd?$AAa?$AAy?$AA?$AA@ 100203d4     libucrt:nlsdata.obj
 0002:000013e4       ??_C@_1BE@EBOGMDOH@?$AAW?$AAe?$AAd?$AAn?$AAe?$AAs?$AAd?$AAa?$AAy?$AA?$AA@ 100203e4     libucrt:nlsdata.obj
 0002:000013f8       ??_C@_1BC@HHMNLIHE@?$AAT?$AAh?$AAu?$AAr?$AAs?$AAd?$AAa?$AAy?$AA?$AA@ 100203f8     libucrt:nlsdata.obj
 0002:0000140c       ??_C@_1O@PDICJHAG@?$AAF?$AAr?$AAi?$AAd?$AAa?$AAy?$AA?$AA@ 1002040c     libucrt:nlsdata.obj
 0002:0000141c       ??_C@_1BC@ENMNNPAJ@?$AAS?$AAa?$AAt?$AAu?$AAr?$AAd?$AAa?$AAy?$AA?$AA@ 1002041c     libucrt:nlsdata.obj
 0002:00001430       ??_C@_17DKNBKCHM@?$AAJ?$AAa?$AAn?$AA?$AA@ 10020430     libucrt:nlsdata.obj
 0002:00001438       ??_C@_17LMDJEKJN@?$AAF?$AAe?$AAb?$AA?$AA@ 10020438     libucrt:nlsdata.obj
 0002:00001440       ??_C@_17CKNLEDEC@?$AAM?$AAa?$AAr?$AA?$AA@ 10020440     libucrt:nlsdata.obj
 0002:00001448       ??_C@_17LFPOIHDD@?$AAA?$AAp?$AAr?$AA?$AA@ 10020448     libucrt:nlsdata.obj
 0002:00001450       ??_C@_17PNNKMEED@?$AAM?$AAa?$AAy?$AA?$AA@ 10020450     libucrt:nlsdata.obj
 0002:00001458       ??_C@_17KCJGOCPB@?$AAJ?$AAu?$AAn?$AA?$AA@ 10020458     libucrt:nlsdata.obj
 0002:00001460       ??_C@_17IJPCKHK@?$AAJ?$AAu?$AAl?$AA?$AA@ 10020460     libucrt:nlsdata.obj
 0002:00001468       ??_C@_17ICPELBCN@?$AAA?$AAu?$AAg?$AA?$AA@ 10020468     libucrt:nlsdata.obj
 0002:00001470       ??_C@_17HCHCOKMG@?$AAS?$AAe?$AAp?$AA?$AA@ 10020470     libucrt:nlsdata.obj
 0002:00001478       ??_C@_17FNLKOI@?$AAO?$AAc?$AAt?$AA?$AA@ 10020478     libucrt:nlsdata.obj
 0002:00001480       ??_C@_17BBDMLCIG@?$AAN?$AAo?$AAv?$AA?$AA@ 10020480     libucrt:nlsdata.obj
 0002:00001488       ??_C@_17EGKACKIF@?$AAD?$AAe?$AAc?$AA?$AA@ 10020488     libucrt:nlsdata.obj
 0002:00001490       ??_C@_1BA@EFMEIEBA@?$AAJ?$AAa?$AAn?$AAu?$AAa?$AAr?$AAy?$AA?$AA@ 10020490     libucrt:nlsdata.obj
 0002:000014a0       ??_C@_1BC@JGDDFFAM@?$AAF?$AAe?$AAb?$AAr?$AAu?$AAa?$AAr?$AAy?$AA?$AA@ 100204a0     libucrt:nlsdata.obj
 0002:000014b4       ??_C@_1M@IKEENEDF@?$AAM?$AAa?$AAr?$AAc?$AAh?$AA?$AA@ 100204b4     libucrt:nlsdata.obj
 0002:000014c0       ??_C@_1M@GJNLMHFD@?$AAA?$AAp?$AAr?$AAi?$AAl?$AA?$AA@ 100204c0     libucrt:nlsdata.obj
 0002:000014cc       ??_C@_19EPFLPGAP@?$AAJ?$AAu?$AAn?$AAe?$AA?$AA@ 100204cc     libucrt:nlsdata.obj
 0002:000014d8       ??_C@_19BIFMLPCD@?$AAJ?$AAu?$AAl?$AAy?$AA?$AA@ 100204d8     libucrt:nlsdata.obj
 0002:000014e4       ??_C@_1O@PAHLKOAC@?$AAA?$AAu?$AAg?$AAu?$AAs?$AAt?$AA?$AA@ 100204e4     libucrt:nlsdata.obj
 0002:000014f4       ??_C@_1BE@DKAAMBJL@?$AAS?$AAe?$AAp?$AAt?$AAe?$AAm?$AAb?$AAe?$AAr?$AA?$AA@ 100204f4     libucrt:nlsdata.obj
 0002:00001508       ??_C@_1BA@EPANDLNG@?$AAO?$AAc?$AAt?$AAo?$AAb?$AAe?$AAr?$AA?$AA@ 10020508     libucrt:nlsdata.obj
 0002:00001518       ??_C@_1BC@BGLIFPF@?$AAN?$AAo?$AAv?$AAe?$AAm?$AAb?$AAe?$AAr?$AA?$AA@ 10020518     libucrt:nlsdata.obj
 0002:0000152c       ??_C@_1BC@FEMKIFH@?$AAD?$AAe?$AAc?$AAe?$AAm?$AAb?$AAe?$AAr?$AA?$AA@ 1002052c     libucrt:nlsdata.obj
 0002:00001540       ??_C@_15ODEHAHHF@?$AAA?$AAM?$AA?$AA@ 10020540     libucrt:nlsdata.obj
 0002:00001548       ??_C@_15CLMNNGEL@?$AAP?$AAM?$AA?$AA@ 10020548     libucrt:nlsdata.obj
 0002:00001550       ??_C@_1BC@IEBCMHCM@?$AAM?$AAM?$AA?1?$AAd?$AAd?$AA?1?$AAy?$AAy?$AA?$AA@ 10020550     libucrt:nlsdata.obj
 0002:00001564       ??_C@_1CI@KNAKOEBC@?$AAd?$AAd?$AAd?$AAd?$AA?0?$AA?5?$AAM?$AAM?$AAM?$AAM?$AA?5?$AAd?$AAd?$AA?0?$AA?5?$AAy?$AAy?$AAy?$AAy?$AA?$AA@ 10020564     libucrt:nlsdata.obj
 0002:0000158c       ??_C@_1BC@GDGBMEMK@?$AAH?$AAH?$AA?3?$AAm?$AAm?$AA?3?$AAs?$AAs?$AA?$AA@ 1002058c     libucrt:nlsdata.obj
 0002:000015a0       ??_C@_1M@BMHNFIME@?$AAe?$AAn?$AA?9?$AAU?$AAS?$AA?$AA@ 100205a0     libucrt:nlsdata.obj
 0002:000015b0       ___lc_time_c               100205b0     libucrt:nlsdata.obj
 0002:00001768       ??_C@_1EG@CNNIPFIM@?$AAa?$AAp?$AAi?$AA?9?$AAm?$AAs?$AA?9?$AAw?$AAi?$AAn?$AA?9?$AAa?$AAp?$AAp?$AAm?$AAo?$AAd?$AAe?$AAl?$AA?9?$AAr?$AAu?$AAn?$AAt?$AAi?$AAm?$AAe?$AA?9?$AAl?$AA1?$AA?9?$AA1@ 10020768     libucrt:winapi_thunks.obj
 0002:000017b0       ??_C@_1EA@JGEFHKEI@?$AAa?$AAp?$AAi?$AA?9?$AAm?$AAs?$AA?9?$AAw?$AAi?$AAn?$AA?9?$AAc?$AAo?$AAr?$AAe?$AA?9?$AAd?$AAa?$AAt?$AAe?$AAt?$AAi?$AAm?$AAe?$AA?9?$AAl?$AA1?$AA?9?$AA1?$AA?9?$AA1?$AA?$AA@ 100207b0     libucrt:winapi_thunks.obj
 0002:000017f0       ??_C@_1DI@GCIAAENM@?$AAa?$AAp?$AAi?$AA?9?$AAm?$AAs?$AA?9?$AAw?$AAi?$AAn?$AA?9?$AAc?$AAo?$AAr?$AAe?$AA?9?$AAf?$AAi?$AAl?$AAe?$AA?9?$AAl?$AA2?$AA?9?$AA1?$AA?9?$AA1?$AA?$AA@ 100207f0     libucrt:winapi_thunks.obj
 0002:00001828       ??_C@_1EI@MPIAOHOC@?$AAa?$AAp?$AAi?$AA?9?$AAm?$AAs?$AA?9?$AAw?$AAi?$AAn?$AA?9?$AAc?$AAo?$AAr?$AAe?$AA?9?$AAl?$AAo?$AAc?$AAa?$AAl?$AAi?$AAz?$AAa?$AAt?$AAi?$AAo?$AAn?$AA?9?$AAl?$AA1?$AA?9@ 10020828     libucrt:winapi_thunks.obj
 0002:00001870       ??_C@_1FK@FPHCKFIE@?$AAa?$AAp?$AAi?$AA?9?$AAm?$AAs?$AA?9?$AAw?$AAi?$AAn?$AA?9?$AAc?$AAo?$AAr?$AAe?$AA?9?$AAl?$AAo?$AAc?$AAa?$AAl?$AAi?$AAz?$AAa?$AAt?$AAi?$AAo?$AAn?$AA?9?$AAo?$AAb?$AAs@ 10020870     libucrt:winapi_thunks.obj
 0002:000018d0       ??_C@_1EM@DILCGIIO@?$AAa?$AAp?$AAi?$AA?9?$AAm?$AAs?$AA?9?$AAw?$AAi?$AAn?$AA?9?$AAc?$AAo?$AAr?$AAe?$AA?9?$AAp?$AAr?$AAo?$AAc?$AAe?$AAs?$AAs?$AAt?$AAh?$AAr?$AAe?$AAa?$AAd?$AAs?$AA?9?$AAl@ 100208d0     libucrt:winapi_thunks.obj
 0002:0000191c       ??_C@_1DM@LNCGDDPN@?$AAa?$AAp?$AAi?$AA?9?$AAm?$AAs?$AA?9?$AAw?$AAi?$AAn?$AA?9?$AAc?$AAo?$AAr?$AAe?$AA?9?$AAs?$AAt?$AAr?$AAi?$AAn?$AAg?$AA?9?$AAl?$AA1?$AA?9?$AA1?$AA?9?$AA0?$AA?$AA@ 1002091c     libucrt:winapi_thunks.obj
 0002:00001958       ??_C@_1DO@FPAPJEMD@?$AAa?$AAp?$AAi?$AA?9?$AAm?$AAs?$AA?9?$AAw?$AAi?$AAn?$AA?9?$AAc?$AAo?$AAr?$AAe?$AA?9?$AAs?$AAy?$AAs?$AAi?$AAn?$AAf?$AAo?$AA?9?$AAl?$AA1?$AA?9?$AA2?$AA?9?$AA1?$AA?$AA@ 10020958     libucrt:winapi_thunks.obj
 0002:00001998       ??_C@_1DK@NDHNAHIO@?$AAa?$AAp?$AAi?$AA?9?$AAm?$AAs?$AA?9?$AAw?$AAi?$AAn?$AA?9?$AAc?$AAo?$AAr?$AAe?$AA?9?$AAw?$AAi?$AAn?$AAr?$AAt?$AA?9?$AAl?$AA1?$AA?9?$AA1?$AA?9?$AA0?$AA?$AA@ 10020998     libucrt:winapi_thunks.obj
 0002:000019d4       ??_C@_1DM@KGHDGBCM@?$AAa?$AAp?$AAi?$AA?9?$AAm?$AAs?$AA?9?$AAw?$AAi?$AAn?$AA?9?$AAc?$AAo?$AAr?$AAe?$AA?9?$AAx?$AAs?$AAt?$AAa?$AAt?$AAe?$AA?9?$AAl?$AA2?$AA?9?$AA1?$AA?9?$AA0?$AA?$AA@ 100209d4     libucrt:winapi_thunks.obj
 0002:00001a10       ??_C@_1EO@IJIOEFOH@?$AAa?$AAp?$AAi?$AA?9?$AAm?$AAs?$AA?9?$AAw?$AAi?$AAn?$AA?9?$AAr?$AAt?$AAc?$AAo?$AAr?$AAe?$AA?9?$AAn?$AAt?$AAu?$AAs?$AAe?$AAr?$AA?9?$AAw?$AAi?$AAn?$AAd?$AAo?$AAw?$AA?9@ 10020a10     libucrt:winapi_thunks.obj
 0002:00001a60       ??_C@_1FG@HHGEKANL@?$AAa?$AAp?$AAi?$AA?9?$AAm?$AAs?$AA?9?$AAw?$AAi?$AAn?$AA?9?$AAs?$AAe?$AAc?$AAu?$AAr?$AAi?$AAt?$AAy?$AA?9?$AAs?$AAy?$AAs?$AAt?$AAe?$AAm?$AAf?$AAu?$AAn?$AAc?$AAt?$AAi@ 10020a60     libucrt:winapi_thunks.obj
 0002:00001ab8       ??_C@_1FG@NCKKOLKO@?$AAe?$AAx?$AAt?$AA?9?$AAm?$AAs?$AA?9?$AAw?$AAi?$AAn?$AA?9?$AAk?$AAe?$AAr?$AAn?$AAe?$AAl?$AA3?$AA2?$AA?9?$AAp?$AAa?$AAc?$AAk?$AAa?$AAg?$AAe?$AA?9?$AAc?$AAu?$AAr?$AAr@ 10020ab8     libucrt:winapi_thunks.obj
 0002:00001b10       ??_C@_1EG@DBIOJECG@?$AAe?$AAx?$AAt?$AA?9?$AAm?$AAs?$AA?9?$AAw?$AAi?$AAn?$AA?9?$AAn?$AAt?$AAu?$AAs?$AAe?$AAr?$AA?9?$AAd?$AAi?$AAa?$AAl?$AAo?$AAg?$AAb?$AAo?$AAx?$AA?9?$AAl?$AA1?$AA?9?$AA1@ 10020b10     libucrt:winapi_thunks.obj
 0002:00001b58       ??_C@_1EO@FIHMJCLF@?$AAe?$AAx?$AAt?$AA?9?$AAm?$AAs?$AA?9?$AAw?$AAi?$AAn?$AA?9?$AAn?$AAt?$AAu?$AAs?$AAe?$AAr?$AA?9?$AAw?$AAi?$AAn?$AAd?$AAo?$AAw?$AAs?$AAt?$AAa?$AAt?$AAi?$AAo?$AAn?$AA?9@ 10020b58     libucrt:winapi_thunks.obj
 0002:00001ba8       ??_C@_1O@BCCLBEOE@?$AAu?$AAs?$AAe?$AAr?$AA3?$AA2?$AA?$AA@ 10020ba8     libucrt:winapi_thunks.obj
 0002:00001be0       ??_C@_0BA@HNOPNCHB@GetActiveWindow?$AA@ 10020be0     libucrt:winapi_thunks.obj
 0002:00001bf8       ??_C@_0BE@JOGNEJCI@GetCurrentPackageId?$AA@ 10020bf8     libucrt:winapi_thunks.obj
 0002:00001c14       ??_C@_0BD@HHGDFDBJ@GetLastActivePopup?$AA@ 10020c14     libucrt:winapi_thunks.obj
 0002:00001c30       ??_C@_0BI@DFKBFLJE@GetProcessWindowStation?$AA@ 10020c30     libucrt:winapi_thunks.obj
 0002:00001c50       ??_C@_0BK@DEKFELLI@GetUserObjectInformationW?$AA@ 10020c50     libucrt:winapi_thunks.obj
 0002:00001c7c       ??_C@_0O@KKBNKAPF@LCMapStringEx?$AA@ 10020c7c     libucrt:winapi_thunks.obj
 0002:00001c94       ??_C@_0BB@HBDEELFH@LocaleNameToLCID?$AA@ 10020c94     libucrt:winapi_thunks.obj
 0002:00001cb0       ??_C@_0M@CHKKJDAI@MessageBoxA?$AA@ 10020cb0     libucrt:winapi_thunks.obj
 0002:00001cc4       ??_C@_0M@DLDCCGNP@MessageBoxW?$AA@ 10020cc4     libucrt:winapi_thunks.obj
 0002:00001ce0       ??_C@_1M@HPNHIDJI@?$AAj?$AAa?$AA?9?$AAJ?$AAP?$AA?$AA@ 10020ce0     libucrt:mbctype.obj
 0002:00001cec       ??_C@_1M@BIBDDEMK@?$AAz?$AAh?$AA?9?$AAC?$AAN?$AA?$AA@ 10020cec     libucrt:mbctype.obj
 0002:00001cf8       ??_C@_1M@JLOOOEGK@?$AAk?$AAo?$AA?9?$AAK?$AAR?$AA?$AA@ 10020cf8     libucrt:mbctype.obj
 0002:00001d04       ??_C@_1M@CLNBBOPM@?$AAz?$AAh?$AA?9?$AAT?$AAW?$AA?$AA@ 10020d04     libucrt:mbctype.obj
 0002:00001d10       ??_C@_03OEIAHPBN@INF?$AA@  10020d10     libucrt:cvt.obj
 0002:00001d14       ??_C@_03OJHLLCGB@inf?$AA@  10020d14     libucrt:cvt.obj
 0002:00001d18       ??_C@_03LKNCIKJB@NAN?$AA@  10020d18     libucrt:cvt.obj
 0002:00001d1c       ??_C@_03LHCJEHON@nan?$AA@  10020d1c     libucrt:cvt.obj
 0002:00001d20       ??_C@_09OFJJIMPC@NAN?$CISNAN?$CJ?$AA@ 10020d20     libucrt:cvt.obj
 0002:00001d2c       ??_C@_09IPFBKMDL@nan?$CIsnan?$CJ?$AA@ 10020d2c     libucrt:cvt.obj
 0002:00001d38       ??_C@_08IKHNHAJ@NAN?$CIIND?$CJ?$AA@ 10020d38     libucrt:cvt.obj
 0002:00001d44       ??_C@_08OFCDMILK@nan?$CIind?$CJ?$AA@ 10020d44     libucrt:cvt.obj
 0002:00001d50       ??_C@_05KLBDPFGC@e?$CL000?$AA@ 10020d50     libucrt:cvt.obj
 0002:00001d58       __wctype                   10020d58     libucrt:ctype.obj
 0002:00001f60       ___newctype                10020f60     libucrt:ctype.obj
 0002:00002260       ___newclmap                10021260     libucrt:ctype.obj
 0002:000023e0       ___newcumap                100213e0     libucrt:ctype.obj
 0002:00002560       ??_C@_15PJPFLCCM@?$AAu?$AAk?$AA?$AA@ 10021560     libucrt:get_qualified_locale.obj
 0002:00002c88       ??_C@_15EMKDOKLE@?$AAa?$AAr?$AA?$AA@ 10021c88     libucrt:lcidtoname_downlevel.obj
 0002:00002c90       ??_C@_15KNPADPLH@?$AAb?$AAg?$AA?$AA@ 10021c90     libucrt:lcidtoname_downlevel.obj
 0002:00002c98       ??_C@_15EDMHLDMO@?$AAc?$AAa?$AA?$AA@ 10021c98     libucrt:lcidtoname_downlevel.obj
 0002:00002ca0       ??_C@_1O@BPEAJADD@?$AAz?$AAh?$AA?9?$AAC?$AAH?$AAS?$AA?$AA@ 10021ca0     libucrt:lcidtoname_downlevel.obj
 0002:00002cb0       ??_C@_15LJNHCMNK@?$AAc?$AAs?$AA?$AA@ 10021cb0     libucrt:lcidtoname_downlevel.obj
 0002:00002cb8       ??_C@_15FOMCIDHG@?$AAd?$AAa?$AA?$AA@ 10021cb8     libucrt:lcidtoname_downlevel.obj
 0002:00002cc0       ??_C@_15NBKABECB@?$AAd?$AAe?$AA?$AA@ 10021cc0     libucrt:lcidtoname_downlevel.obj
 0002:00002cc8       ??_C@_15GHPEIIAO@?$AAe?$AAl?$AA?$AA@ 10021cc8     libucrt:lcidtoname_downlevel.obj
 0002:00002cd0       ??_C@_15MNPNEAIF@?$AAe?$AAn?$AA?$AA@ 10021cd0     libucrt:lcidtoname_downlevel.obj
 0002:00002cd8       ??_C@_15GPIOMPMH@?$AAe?$AAs?$AA?$AA@ 10021cd8     libucrt:lcidtoname_downlevel.obj
 0002:00002ce0       ??_C@_15NGLOAKJC@?$AAf?$AAi?$AA?$AA@ 10021ce0     libucrt:lcidtoname_downlevel.obj
 0002:00002ce8       ??_C@_15FBKGNKAM@?$AAf?$AAr?$AA?$AA@ 10021ce8     libucrt:lcidtoname_downlevel.obj
 0002:00002cf0       ??_C@_15KGGCNEFK@?$AAh?$AAe?$AA?$AA@ 10021cf0     libucrt:lcidtoname_downlevel.obj
 0002:00002cf8       ??_C@_15PGHLIDMF@?$AAh?$AAu?$AA?$AA@ 10021cf8     libucrt:lcidtoname_downlevel.obj
 0002:00002d00       ??_C@_15BIEMAPLM@?$AAi?$AAs?$AA?$AA@ 10021d00     libucrt:lcidtoname_downlevel.obj
 0002:00002d08       ??_C@_15IFJLDHAF@?$AAi?$AAt?$AA?$AA@ 10021d08     libucrt:lcidtoname_downlevel.obj
 0002:00002d10       ??_C@_15GEMIOCAG@?$AAj?$AAa?$AA?$AA@ 10021d10     libucrt:lcidtoname_downlevel.obj
 0002:00002d18       ??_C@_15EPELEGJA@?$AAk?$AAo?$AA?$AA@ 10021d18     libucrt:lcidtoname_downlevel.obj
 0002:00002d20       ??_C@_15NDDHIMN@?$AAn?$AAl?$AA?$AA@ 10021d20     libucrt:lcidtoname_downlevel.obj
 0002:00002d28       ??_C@_15BPIGNHCD@?$AAn?$AAo?$AA?$AA@ 10021d28     libucrt:lcidtoname_downlevel.obj
 0002:00002d30       ??_C@_15DEOPBLCG@?$AAp?$AAl?$AA?$AA@ 10021d30     libucrt:lcidtoname_downlevel.obj
 0002:00002d38       ??_C@_15KBECGEFG@?$AAp?$AAt?$AA?$AA@ 10021d38     libucrt:lcidtoname_downlevel.obj
 0002:00002d40       ??_C@_15GLJCBFMD@?$AAr?$AAo?$AA?$AA@ 10021d40     libucrt:lcidtoname_downlevel.obj
 0002:00002d48       ??_C@_15FEDGKCDI@?$AAr?$AAu?$AA?$AA@ 10021d48     libucrt:lcidtoname_downlevel.obj
 0002:00002d50       ??_C@_15GLKMLLHM@?$AAh?$AAr?$AA?$AA@ 10021d50     libucrt:lcidtoname_downlevel.obj
 0002:00002d58       ??_C@_15CPKMFBDB@?$AAs?$AAk?$AA?$AA@ 10021d58     libucrt:lcidtoname_downlevel.obj
 0002:00002d60       ??_C@_15BAAIOGMK@?$AAs?$AAq?$AA?$AA@ 10021d60     libucrt:lcidtoname_downlevel.obj
 0002:00002d68       ??_C@_15INNPNOHD@?$AAs?$AAv?$AA?$AA@ 10021d68     libucrt:lcidtoname_downlevel.obj
 0002:00002d70       ??_C@_15CABMMOGH@?$AAt?$AAh?$AA?$AA@ 10021d70     libucrt:lcidtoname_downlevel.obj
 0002:00002d78       ??_C@_15BPLIHJJM@?$AAt?$AAr?$AA?$AA@ 10021d78     libucrt:lcidtoname_downlevel.obj
 0002:00002d80       ??_C@_15NEOEKKDJ@?$AAu?$AAr?$AA?$AA@ 10021d80     libucrt:lcidtoname_downlevel.obj
 0002:00002d88       ??_C@_15NFICGAJK@?$AAi?$AAd?$AA?$AA@ 10021d88     libucrt:lcidtoname_downlevel.obj
 0002:00002d90       ??_C@_15HPJPHDM@?$AAb?$AAe?$AA?$AA@ 10021d90     libucrt:lcidtoname_downlevel.obj
 0002:00002d98       ??_C@_15LCHLGJII@?$AAs?$AAl?$AA?$AA@ 10021d98     libucrt:lcidtoname_downlevel.obj
 0002:00002da0       ??_C@_15PCFJPHHO@?$AAe?$AAt?$AA?$AA@ 10021da0     libucrt:lcidtoname_downlevel.obj
 0002:00002da8       ??_C@_15HPFPGODN@?$AAl?$AAv?$AA?$AA@ 10021da8     libucrt:lcidtoname_downlevel.obj
 0002:00002db0       ??_C@_15NFFGKGLG@?$AAl?$AAt?$AA?$AA@ 10021db0     libucrt:lcidtoname_downlevel.obj
 0002:00002db8       ??_C@_15BDAKCCHN@?$AAf?$AAa?$AA?$AA@ 10021db8     libucrt:lcidtoname_downlevel.obj
 0002:00002dc0       ??_C@_15NFGIAIAJ@?$AAv?$AAi?$AA?$AA@ 10021dc0     libucrt:lcidtoname_downlevel.obj
 0002:00002dc8       ??_C@_15LMKNDMHN@?$AAh?$AAy?$AA?$AA@ 10021dc8     libucrt:lcidtoname_downlevel.obj
 0002:00002dd0       ??_C@_15IJBHMCFL@?$AAa?$AAz?$AA?$AA@ 10021dd0     libucrt:lcidtoname_downlevel.obj
 0002:00002dd8       ??_C@_15EKOFJABL@?$AAe?$AAu?$AA?$AA@ 10021dd8     libucrt:lcidtoname_downlevel.obj
 0002:00002de0       ??_C@_15BGHADCNK@?$AAm?$AAk?$AA?$AA@ 10021de0     libucrt:lcidtoname_downlevel.obj
 0002:00002de8       ??_C@_15JDNICKHM@?$AAa?$AAf?$AA?$AA@ 10021de8     libucrt:lcidtoname_downlevel.obj
 0002:00002df0       ??_C@_15KPJEDBKD@?$AAk?$AAa?$AA?$AA@ 10021df0     libucrt:lcidtoname_downlevel.obj
 0002:00002df8       ??_C@_15PDNFFFEO@?$AAf?$AAo?$AA?$AA@ 10021df8     libucrt:lcidtoname_downlevel.obj
 0002:00002e00       ??_C@_15OMLEGLOC@?$AAh?$AAi?$AA?$AA@ 10021e00     libucrt:lcidtoname_downlevel.obj
 0002:00002e08       ??_C@_15IDNNENKK@?$AAm?$AAs?$AA?$AA@ 10021e08     libucrt:lcidtoname_downlevel.obj
 0002:00002e10       ??_C@_15MACJNBMH@?$AAk?$AAk?$AA?$AA@ 10021e10     libucrt:lcidtoname_downlevel.obj
 0002:00002e18       ??_C@_15DKDJEOND@?$AAk?$AAy?$AA?$AA@ 10021e18     libucrt:lcidtoname_downlevel.obj
 0002:00002e20       ??_C@_15DFGDLJBG@?$AAs?$AAw?$AA?$AA@ 10021e20     libucrt:lcidtoname_downlevel.obj
 0002:00002e28       ??_C@_15BBFAICNG@?$AAu?$AAz?$AA?$AA@ 10021e28     libucrt:lcidtoname_downlevel.obj
 0002:00002e30       ??_C@_15DKNDCGEA@?$AAt?$AAt?$AA?$AA@ 10021e30     libucrt:lcidtoname_downlevel.obj
 0002:00002e38       ??_C@_15MGIFMDPL@?$AAp?$AAa?$AA?$AA@ 10021e38     libucrt:lcidtoname_downlevel.obj
 0002:00002e40       ??_C@_15HCNDBBA@?$AAg?$AAu?$AA?$AA@ 10021e40     libucrt:lcidtoname_downlevel.obj
 0002:00002e48       ??_C@_15FNBEIBON@?$AAt?$AAa?$AA?$AA@ 10021e48     libucrt:lcidtoname_downlevel.obj
 0002:00002e50       ??_C@_15NCHGBGLK@?$AAt?$AAe?$AA?$AA@ 10021e50     libucrt:lcidtoname_downlevel.obj
 0002:00002e58       ??_C@_15PHPHCBPF@?$AAk?$AAn?$AA?$AA@ 10021e58     libucrt:lcidtoname_downlevel.obj
 0002:00002e60       ??_C@_15DLGBCKMP@?$AAm?$AAr?$AA?$AA@ 10021e60     libucrt:lcidtoname_downlevel.obj
 0002:00002e68       ??_C@_15EABBLBFF@?$AAs?$AAa?$AA?$AA@ 10021e68     libucrt:lcidtoname_downlevel.obj
 0002:00002e70       ??_C@_15CBKOMCOI@?$AAm?$AAn?$AA?$AA@ 10021e70     libucrt:lcidtoname_downlevel.obj
 0002:00002e78       ??_C@_15CKDMCJAF@?$AAg?$AAl?$AA?$AA@ 10021e78     libucrt:lcidtoname_downlevel.obj
 0002:00002e80       ??_C@_17CNJFBPG@?$AAk?$AAo?$AAk?$AA?$AA@ 10021e80     libucrt:lcidtoname_downlevel.obj
 0002:00002e88       ??_C@_17FFBJICPL@?$AAs?$AAy?$AAr?$AA?$AA@ 10021e88     libucrt:lcidtoname_downlevel.obj
 0002:00002e90       ??_C@_17KPNDCPAF@?$AAd?$AAi?$AAv?$AA?$AA@ 10021e90     libucrt:lcidtoname_downlevel.obj
 0002:00002e98       ??_C@_11LOCGONAA@?$AA?$AA@ 10021e98     libucrt:lcidtoname_downlevel.obj
 0002:00002e9c       ??_C@_1M@OKAHONE@?$AAa?$AAr?$AA?9?$AAS?$AAA?$AA?$AA@ 10021e9c     libucrt:lcidtoname_downlevel.obj
 0002:00002ea8       ??_C@_1M@FFFIGIGK@?$AAb?$AAg?$AA?9?$AAB?$AAG?$AA?$AA@ 10021ea8     libucrt:lcidtoname_downlevel.obj
 0002:00002eb4       ??_C@_1M@BJNKEDC@?$AAc?$AAa?$AA?9?$AAE?$AAS?$AA?$AA@ 10021eb4     libucrt:lcidtoname_downlevel.obj
 0002:00002ec0       ??_C@_1M@IJJHFJHA@?$AAc?$AAs?$AA?9?$AAC?$AAZ?$AA?$AA@ 10021ec0     libucrt:lcidtoname_downlevel.obj
 0002:00002ecc       ??_C@_1M@CLPEOBGI@?$AAd?$AAa?$AA?9?$AAD?$AAK?$AA?$AA@ 10021ecc     libucrt:lcidtoname_downlevel.obj
 0002:00002ed8       ??_C@_1M@MCMADGCB@?$AAd?$AAe?$AA?9?$AAD?$AAE?$AA?$AA@ 10021ed8     libucrt:lcidtoname_downlevel.obj
 0002:00002ee4       ??_C@_1M@OOCKEMAM@?$AAe?$AAl?$AA?9?$AAG?$AAR?$AA?$AA@ 10021ee4     libucrt:lcidtoname_downlevel.obj
 0002:00002ef0       ??_C@_1M@DDNJFGID@?$AAf?$AAi?$AA?9?$AAF?$AAI?$AA?$AA@ 10021ef0     libucrt:lcidtoname_downlevel.obj
 0002:00002efc       ??_C@_1M@GLIPPMAC@?$AAf?$AAr?$AA?9?$AAF?$AAR?$AA?$AA@ 10021efc     libucrt:lcidtoname_downlevel.obj
 0002:00002f08       ??_C@_1M@GFMCHPE@?$AAh?$AAe?$AA?9?$AAI?$AAL?$AA?$AA@ 10021f08     libucrt:lcidtoname_downlevel.obj
 0002:00002f14       ??_C@_1M@MHLPGNKM@?$AAh?$AAu?$AA?9?$AAH?$AAU?$AA?$AA@ 10021f14     libucrt:lcidtoname_downlevel.obj
 0002:00002f20       ??_C@_1M@LPDDNNPN@?$AAi?$AAs?$AA?9?$AAI?$AAS?$AA?$AA@ 10021f20     libucrt:lcidtoname_downlevel.obj
 0002:00002f2c       ??_C@_1M@MADIPODN@?$AAi?$AAt?$AA?9?$AAI?$AAT?$AA?$AA@ 10021f2c     libucrt:lcidtoname_downlevel.obj
 0002:00002f38       ??_C@_1M@IHBJJGG@?$AAn?$AAl?$AA?9?$AAN?$AAL?$AA?$AA@ 10021f38     libucrt:lcidtoname_downlevel.obj
 0002:00002f44       ??_C@_1M@EANAGDL@?$AAn?$AAb?$AA?9?$AAN?$AAO?$AA?$AA@ 10021f44     libucrt:lcidtoname_downlevel.obj
 0002:00002f50       ??_C@_1M@NEIEMEGP@?$AAp?$AAl?$AA?9?$AAP?$AAL?$AA?$AA@ 10021f50     libucrt:lcidtoname_downlevel.obj
 0002:00002f5c       ??_C@_1M@BOCFIGEP@?$AAp?$AAt?$AA?9?$AAB?$AAR?$AA?$AA@ 10021f5c     libucrt:lcidtoname_downlevel.obj
 0002:00002f68       ??_C@_1M@IMPFOPBG@?$AAr?$AAo?$AA?9?$AAR?$AAO?$AA?$AA@ 10021f68     libucrt:lcidtoname_downlevel.obj
 0002:00002f74       ??_C@_1M@IDNNEJMM@?$AAr?$AAu?$AA?9?$AAR?$AAU?$AA?$AA@ 10021f74     libucrt:lcidtoname_downlevel.obj
 0002:00002f80       ??_C@_1M@LILEEOGM@?$AAh?$AAr?$AA?9?$AAH?$AAR?$AA?$AA@ 10021f80     libucrt:lcidtoname_downlevel.obj
 0002:00002f8c       ??_C@_1M@FKIFEHPB@?$AAs?$AAk?$AA?9?$AAS?$AAK?$AA?$AA@ 10021f8c     libucrt:lcidtoname_downlevel.obj
 0002:00002f98       ??_C@_1M@LJMAMNPJ@?$AAs?$AAq?$AA?9?$AAA?$AAL?$AA?$AA@ 10021f98     libucrt:lcidtoname_downlevel.obj
 0002:00002fa4       ??_C@_1M@GIAKDKJK@?$AAs?$AAv?$AA?9?$AAS?$AAE?$AA?$AA@ 10021fa4     libucrt:lcidtoname_downlevel.obj
 0002:00002fb0       ??_C@_1M@MKJKIKCL@?$AAt?$AAh?$AA?9?$AAT?$AAH?$AA?$AA@ 10021fb0     libucrt:lcidtoname_downlevel.obj
 0002:00002fbc       ??_C@_1M@MFLCCMPB@?$AAt?$AAr?$AA?9?$AAT?$AAR?$AA?$AA@ 10021fbc     libucrt:lcidtoname_downlevel.obj
 0002:00002fc8       ??_C@_1M@OIJHDKJN@?$AAu?$AAr?$AA?9?$AAP?$AAK?$AA?$AA@ 10021fc8     libucrt:lcidtoname_downlevel.obj
 0002:00002fd4       ??_C@_1M@LHIPCIEK@?$AAi?$AAd?$AA?9?$AAI?$AAD?$AA?$AA@ 10021fd4     libucrt:lcidtoname_downlevel.obj
 0002:00002fe0       ??_C@_1M@MFMOBGI@?$AAu?$AAk?$AA?9?$AAU?$AAA?$AA?$AA@ 10021fe0     libucrt:lcidtoname_downlevel.obj
 0002:00002fec       ??_C@_1M@OBGLJIPL@?$AAb?$AAe?$AA?9?$AAB?$AAY?$AA?$AA@ 10021fec     libucrt:lcidtoname_downlevel.obj
 0002:00002ff8       ??_C@_1M@BCFAJEAD@?$AAs?$AAl?$AA?9?$AAS?$AAI?$AA?$AA@ 10021ff8     libucrt:lcidtoname_downlevel.obj
 0002:00003004       ??_C@_1M@FKFFEDDN@?$AAe?$AAt?$AA?9?$AAE?$AAE?$AA?$AA@ 10022004     libucrt:lcidtoname_downlevel.obj
 0002:00003010       ??_C@_1M@KGKKAACI@?$AAl?$AAv?$AA?9?$AAL?$AAV?$AA?$AA@ 10022010     libucrt:lcidtoname_downlevel.obj
 0002:0000301c       ??_C@_1M@IFGBIJO@?$AAl?$AAt?$AA?9?$AAL?$AAT?$AA?$AA@ 1002201c     libucrt:lcidtoname_downlevel.obj
 0002:00003028       ??_C@_1M@FGEAHEDM@?$AAf?$AAa?$AA?9?$AAI?$AAR?$AA?$AA@ 10022028     libucrt:lcidtoname_downlevel.obj
 0002:00003034       ??_C@_1M@KBMAIBFN@?$AAv?$AAi?$AA?9?$AAV?$AAN?$AA?$AA@ 10022034     libucrt:lcidtoname_downlevel.obj
 0002:00003040       ??_C@_1M@GPCBKDJK@?$AAh?$AAy?$AA?9?$AAA?$AAM?$AA?$AA@ 10022040     libucrt:lcidtoname_downlevel.obj
 0002:0000304c       ??_C@_1BG@BECMDDJB@?$AAa?$AAz?$AA?9?$AAA?$AAZ?$AA?9?$AAL?$AAa?$AAt?$AAn?$AA?$AA@ 1002204c     libucrt:lcidtoname_downlevel.obj
 0002:00003064       ??_C@_1M@MAOFCAEA@?$AAe?$AAu?$AA?9?$AAE?$AAS?$AA?$AA@ 10022064     libucrt:lcidtoname_downlevel.obj
 0002:00003070       ??_C@_1M@IGHABKPI@?$AAm?$AAk?$AA?9?$AAM?$AAK?$AA?$AA@ 10022070     libucrt:lcidtoname_downlevel.obj
 0002:0000307c       ??_C@_1M@IAIGNEJG@?$AAt?$AAn?$AA?9?$AAZ?$AAA?$AA?$AA@ 1002207c     libucrt:lcidtoname_downlevel.obj
 0002:00003088       ??_C@_1M@IIJCOJFA@?$AAx?$AAh?$AA?9?$AAZ?$AAA?$AA?$AA@ 10022088     libucrt:lcidtoname_downlevel.obj
 0002:00003094       ??_C@_1M@LGPJHNJH@?$AAz?$AAu?$AA?9?$AAZ?$AAA?$AA?$AA@ 10022094     libucrt:lcidtoname_downlevel.obj
 0002:000030a0       ??_C@_1M@HOKAOIO@?$AAa?$AAf?$AA?9?$AAZ?$AAA?$AA?$AA@ 100220a0     libucrt:lcidtoname_downlevel.obj
 0002:000030ac       ??_C@_1M@DPCLHLIE@?$AAk?$AAa?$AA?9?$AAG?$AAE?$AA?$AA@ 100220ac     libucrt:lcidtoname_downlevel.obj
 0002:000030b8       ??_C@_1M@BLKMHJBI@?$AAf?$AAo?$AA?9?$AAF?$AAO?$AA?$AA@ 100220b8     libucrt:lcidtoname_downlevel.obj
 0002:000030c4       ??_C@_1M@LGGJAPPB@?$AAh?$AAi?$AA?9?$AAI?$AAN?$AA?$AA@ 100220c4     libucrt:lcidtoname_downlevel.obj
 0002:000030d0       ??_C@_1M@FIKPIHFE@?$AAm?$AAt?$AA?9?$AAM?$AAT?$AA?$AA@ 100220d0     libucrt:lcidtoname_downlevel.obj
 0002:000030dc       ??_C@_1M@HEGGPBFA@?$AAs?$AAe?$AA?9?$AAN?$AAO?$AA?$AA@ 100220dc     libucrt:lcidtoname_downlevel.obj
 0002:000030e8       ??_C@_1M@EIBJEEPA@?$AAm?$AAs?$AA?9?$AAM?$AAY?$AA?$AA@ 100220e8     libucrt:lcidtoname_downlevel.obj
 0002:000030f4       ??_C@_1M@FHLBGMPP@?$AAk?$AAk?$AA?9?$AAK?$AAZ?$AA?$AA@ 100220f4     libucrt:lcidtoname_downlevel.obj
 0002:00003100       ??_C@_1M@NGJJLCGI@?$AAk?$AAy?$AA?9?$AAK?$AAG?$AA?$AA@ 10022100     libucrt:lcidtoname_downlevel.obj
 0002:0000310c       ??_C@_1M@GIENNBFC@?$AAs?$AAw?$AA?9?$AAK?$AAE?$AA?$AA@ 1002210c     libucrt:lcidtoname_downlevel.obj
 0002:00003118       ??_C@_1BG@NDGMJIMJ@?$AAu?$AAz?$AA?9?$AAU?$AAZ?$AA?9?$AAL?$AAa?$AAt?$AAn?$AA?$AA@ 10022118     libucrt:lcidtoname_downlevel.obj
 0002:00003130       ??_C@_1M@IDCCIHBC@?$AAt?$AAt?$AA?9?$AAR?$AAU?$AA?$AA@ 10022130     libucrt:lcidtoname_downlevel.obj
 0002:0000313c       ??_C@_1M@LOICPMOJ@?$AAb?$AAn?$AA?9?$AAI?$AAN?$AA?$AA@ 1002213c     libucrt:lcidtoname_downlevel.obj
 0002:00003148       ??_C@_1M@KPKKNEAH@?$AAp?$AAa?$AA?9?$AAI?$AAN?$AA?$AA@ 10022148     libucrt:lcidtoname_downlevel.obj
 0002:00003154       ??_C@_1M@PJGPPBOG@?$AAg?$AAu?$AA?9?$AAI?$AAN?$AA?$AA@ 10022154     libucrt:lcidtoname_downlevel.obj
 0002:00003160       ??_C@_1M@KMKMOPHI@?$AAt?$AAa?$AA?9?$AAI?$AAN?$AA?$AA@ 10022160     libucrt:lcidtoname_downlevel.obj
 0002:0000316c       ??_C@_1M@KFEHEPAC@?$AAt?$AAe?$AA?9?$AAI?$AAN?$AA?$AA@ 1002216c     libucrt:lcidtoname_downlevel.obj
 0002:00003178       ??_C@_1M@CDCLMGHI@?$AAk?$AAn?$AA?9?$AAI?$AAN?$AA?$AA@ 10022178     libucrt:lcidtoname_downlevel.obj
 0002:00003184       ??_C@_1M@MIODLDKF@?$AAm?$AAl?$AA?9?$AAI?$AAN?$AA?$AA@ 10022184     libucrt:lcidtoname_downlevel.obj
 0002:00003190       ??_C@_1M@PBIEACPO@?$AAm?$AAr?$AA?9?$AAI?$AAN?$AA?$AA@ 10022190     libucrt:lcidtoname_downlevel.obj
 0002:0000319c       ??_C@_1M@NIDEAGPH@?$AAs?$AAa?$AA?9?$AAI?$AAN?$AA?$AA@ 1002219c     libucrt:lcidtoname_downlevel.obj
 0002:000031a8       ??_C@_1M@FHIHCBIO@?$AAm?$AAn?$AA?9?$AAM?$AAN?$AA?$AA@ 100221a8     libucrt:lcidtoname_downlevel.obj
 0002:000031b4       ??_C@_1M@JAIJPENP@?$AAc?$AAy?$AA?9?$AAG?$AAB?$AA?$AA@ 100221b4     libucrt:lcidtoname_downlevel.obj
 0002:000031c0       ??_C@_1M@PHGFBEPN@?$AAg?$AAl?$AA?9?$AAE?$AAS?$AA?$AA@ 100221c0     libucrt:lcidtoname_downlevel.obj
 0002:000031cc       ??_C@_1O@KPIPDNCP@?$AAk?$AAo?$AAk?$AA?9?$AAI?$AAN?$AA?$AA@ 100221cc     libucrt:lcidtoname_downlevel.obj
 0002:000031dc       ??_C@_1O@KNHJLDJA@?$AAs?$AAy?$AAr?$AA?9?$AAS?$AAY?$AA?$AA@ 100221dc     libucrt:lcidtoname_downlevel.obj
 0002:000031ec       ??_C@_1O@MKEKBLAH@?$AAd?$AAi?$AAv?$AA?9?$AAM?$AAV?$AA?$AA@ 100221ec     libucrt:lcidtoname_downlevel.obj
 0002:000031fc       ??_C@_1O@OHDCKDDF@?$AAq?$AAu?$AAz?$AA?9?$AAB?$AAO?$AA?$AA@ 100221fc     libucrt:lcidtoname_downlevel.obj
 0002:0000320c       ??_C@_1M@LEPJNLFD@?$AAn?$AAs?$AA?9?$AAZ?$AAA?$AA?$AA@ 1002220c     libucrt:lcidtoname_downlevel.obj
 0002:00003218       ??_C@_1M@OMLEIIJB@?$AAm?$AAi?$AA?9?$AAN?$AAZ?$AA?$AA@ 10022218     libucrt:lcidtoname_downlevel.obj
 0002:00003224       ??_C@_1M@PMPEAILG@?$AAa?$AAr?$AA?9?$AAI?$AAQ?$AA?$AA@ 10022224     libucrt:lcidtoname_downlevel.obj
 0002:00003230       ??_C@_1M@CNKPNOEE@?$AAd?$AAe?$AA?9?$AAC?$AAH?$AA?$AA@ 10022230     libucrt:lcidtoname_downlevel.obj
 0002:0000323c       ??_C@_1M@LKMGMLKO@?$AAe?$AAn?$AA?9?$AAG?$AAB?$AA?$AA@ 1002223c     libucrt:lcidtoname_downlevel.obj
 0002:00003248       ??_C@_1M@PGKJFFGL@?$AAe?$AAs?$AA?9?$AAM?$AAX?$AA?$AA@ 10022248     libucrt:lcidtoname_downlevel.obj
 0002:00003254       ??_C@_1M@DNNANBDC@?$AAf?$AAr?$AA?9?$AAB?$AAE?$AA?$AA@ 10022254     libucrt:lcidtoname_downlevel.obj
 0002:00003260       ??_C@_1M@HLGMDFHM@?$AAi?$AAt?$AA?9?$AAC?$AAH?$AA?$AA@ 10022260     libucrt:lcidtoname_downlevel.obj
 0002:0000326c       ??_C@_1M@CLLBGJH@?$AAn?$AAl?$AA?9?$AAB?$AAE?$AA?$AA@ 1002226c     libucrt:lcidtoname_downlevel.obj
 0002:00003278       ??_C@_1M@BODBOGLF@?$AAn?$AAn?$AA?9?$AAN?$AAO?$AA?$AA@ 10022278     libucrt:lcidtoname_downlevel.obj
 0002:00003284       ??_C@_1M@HFFAHKAD@?$AAp?$AAt?$AA?9?$AAP?$AAT?$AA?$AA@ 10022284     libucrt:lcidtoname_downlevel.obj
 0002:00003290       ??_C@_1BG@LNOAKHIE@?$AAs?$AAr?$AA?9?$AAS?$AAP?$AA?9?$AAL?$AAa?$AAt?$AAn?$AA?$AA@ 10022290     libucrt:lcidtoname_downlevel.obj
 0002:000032a8       ??_C@_1M@HBMHBGAK@?$AAs?$AAv?$AA?9?$AAF?$AAI?$AA?$AA@ 100222a8     libucrt:lcidtoname_downlevel.obj
 0002:000032b4       ??_C@_1BG@DGCJGJBE@?$AAa?$AAz?$AA?9?$AAA?$AAZ?$AA?9?$AAC?$AAy?$AAr?$AAl?$AA?$AA@ 100222b4     libucrt:lcidtoname_downlevel.obj
 0002:000032cc       ??_C@_1M@KEJDAAHB@?$AAs?$AAe?$AA?9?$AAS?$AAE?$AA?$AA@ 100222cc     libucrt:lcidtoname_downlevel.obj
 0002:000032d8       ??_C@_1M@HEIBJJAD@?$AAm?$AAs?$AA?9?$AAB?$AAN?$AA?$AA@ 100222d8     libucrt:lcidtoname_downlevel.obj
 0002:000032e4       ??_C@_1BG@PBGJMCEM@?$AAu?$AAz?$AA?9?$AAU?$AAZ?$AA?9?$AAC?$AAy?$AAr?$AAl?$AA?$AA@ 100222e4     libucrt:lcidtoname_downlevel.obj
 0002:000032fc       ??_C@_1O@LAOBCMDF@?$AAq?$AAu?$AAz?$AA?9?$AAE?$AAC?$AA?$AA@ 100222fc     libucrt:lcidtoname_downlevel.obj
 0002:0000330c       ??_C@_1M@POEEMAIO@?$AAa?$AAr?$AA?9?$AAE?$AAG?$AA?$AA@ 1002230c     libucrt:lcidtoname_downlevel.obj
 0002:00003318       ??_C@_1M@EFAKDEDL@?$AAz?$AAh?$AA?9?$AAH?$AAK?$AA?$AA@ 10022318     libucrt:lcidtoname_downlevel.obj
 0002:00003324       ??_C@_1M@HKKIJHGI@?$AAd?$AAe?$AA?9?$AAA?$AAT?$AA?$AA@ 10022324     libucrt:lcidtoname_downlevel.obj
 0002:00003330       ??_C@_1M@KBFBEHJF@?$AAe?$AAn?$AA?9?$AAA?$AAU?$AA?$AA@ 10022330     libucrt:lcidtoname_downlevel.obj
 0002:0000333c       ??_C@_1M@MNPLFAAH@?$AAe?$AAs?$AA?9?$AAE?$AAS?$AA?$AA@ 1002233c     libucrt:lcidtoname_downlevel.obj
 0002:00003348       ??_C@_1M@HJOOJFMA@?$AAf?$AAr?$AA?9?$AAC?$AAA?$AA?$AA@ 10022348     libucrt:lcidtoname_downlevel.obj
 0002:00003354       ??_C@_1BG@JPOFPNAB@?$AAs?$AAr?$AA?9?$AAS?$AAP?$AA?9?$AAC?$AAy?$AAr?$AAl?$AA?$AA@ 10022354     libucrt:lcidtoname_downlevel.obj
 0002:0000336c       ??_C@_1M@LNFOCMOB@?$AAs?$AAe?$AA?9?$AAF?$AAI?$AA?$AA@ 1002236c     libucrt:lcidtoname_downlevel.obj
 0002:00003378       ??_C@_1O@MGJBOAMB@?$AAq?$AAu?$AAz?$AA?9?$AAP?$AAE?$AA?$AA@ 10022378     libucrt:lcidtoname_downlevel.obj
 0002:00003388       ??_C@_1M@GJINLBOK@?$AAa?$AAr?$AA?9?$AAL?$AAY?$AA?$AA@ 10022388     libucrt:lcidtoname_downlevel.obj
 0002:00003394       ??_C@_1M@GGMNHJNL@?$AAz?$AAh?$AA?9?$AAS?$AAG?$AA?$AA@ 10022394     libucrt:lcidtoname_downlevel.obj
 0002:000033a0       ??_C@_1M@HOIKODND@?$AAd?$AAe?$AA?9?$AAL?$AAU?$AA?$AA@ 100223a0     libucrt:lcidtoname_downlevel.obj
 0002:000033ac       ??_C@_1M@DDOCCGFG@?$AAe?$AAn?$AA?9?$AAC?$AAA?$AA?$AA@ 100223ac     libucrt:lcidtoname_downlevel.obj
 0002:000033b8       ??_C@_1M@BNOEMJLF@?$AAe?$AAs?$AA?9?$AAG?$AAT?$AA?$AA@ 100223b8     libucrt:lcidtoname_downlevel.obj
 0002:000033c4       ??_C@_1M@EOGNKEK@?$AAf?$AAr?$AA?9?$AAC?$AAH?$AA?$AA@ 100223c4     libucrt:lcidtoname_downlevel.obj
 0002:000033d0       ??_C@_1M@FLIDJFHL@?$AAh?$AAr?$AA?9?$AAB?$AAA?$AA?$AA@ 100223d0     libucrt:lcidtoname_downlevel.obj
 0002:000033dc       ??_C@_1O@FMCELNAJ@?$AAs?$AAm?$AAj?$AA?9?$AAN?$AAO?$AA?$AA@ 100223dc     libucrt:lcidtoname_downlevel.obj
 0002:000033ec       ??_C@_1M@JHGLJMGJ@?$AAa?$AAr?$AA?9?$AAD?$AAZ?$AA?$AA@ 100223ec     libucrt:lcidtoname_downlevel.obj
 0002:000033f8       ??_C@_1M@JKKFDCNP@?$AAz?$AAh?$AA?9?$AAM?$AAO?$AA?$AA@ 100223f8     libucrt:lcidtoname_downlevel.obj
 0002:00003404       ??_C@_1M@GEEFALPE@?$AAd?$AAe?$AA?9?$AAL?$AAI?$AA?$AA@ 10022404     libucrt:lcidtoname_downlevel.obj
 0002:00003410       ??_C@_1M@IGEOFBG@?$AAe?$AAn?$AA?9?$AAN?$AAZ?$AA?$AA@ 10022410     libucrt:lcidtoname_downlevel.obj
 0002:0000341c       ??_C@_1M@KDBONEHP@?$AAe?$AAs?$AA?9?$AAC?$AAR?$AA?$AA@ 1002241c     libucrt:lcidtoname_downlevel.obj
 0002:00003428       ??_C@_1M@FHMDOHNN@?$AAf?$AAr?$AA?9?$AAL?$AAU?$AA?$AA@ 10022428     libucrt:lcidtoname_downlevel.obj
 0002:00003434       ??_C@_1BG@NFKKMAFG@?$AAb?$AAs?$AA?9?$AAB?$AAA?$AA?9?$AAL?$AAa?$AAt?$AAn?$AA?$AA@ 10022434     libucrt:lcidtoname_downlevel.obj
 0002:0000344c       ??_C@_1O@IMNBEMCI@?$AAs?$AAm?$AAj?$AA?9?$AAS?$AAE?$AA?$AA@ 1002244c     libucrt:lcidtoname_downlevel.obj
 0002:0000345c       ??_C@_1M@DHHMBNDP@?$AAa?$AAr?$AA?9?$AAM?$AAA?$AA?$AA@ 1002245c     libucrt:lcidtoname_downlevel.obj
 0002:00003468       ??_C@_1M@BNBLJCGH@?$AAe?$AAn?$AA?9?$AAI?$AAE?$AA?$AA@ 10022468     libucrt:lcidtoname_downlevel.obj
 0002:00003474       ??_C@_1M@GEPAFMDL@?$AAe?$AAs?$AA?9?$AAP?$AAA?$AA?$AA@ 10022474     libucrt:lcidtoname_downlevel.obj
 0002:00003480       ??_C@_1M@OJONDMDL@?$AAf?$AAr?$AA?9?$AAM?$AAC?$AA?$AA@ 10022480     libucrt:lcidtoname_downlevel.obj
 0002:0000348c       ??_C@_1BG@OBCNFJB@?$AAs?$AAr?$AA?9?$AAB?$AAA?$AA?9?$AAL?$AAa?$AAt?$AAn?$AA?$AA@ 1002248c     libucrt:lcidtoname_downlevel.obj
 0002:000034a4       ??_C@_1O@KEMEEGPO@?$AAs?$AAm?$AAa?$AA?9?$AAN?$AAO?$AA?$AA@ 100224a4     libucrt:lcidtoname_downlevel.obj
 0002:000034b4       ??_C@_1M@ELMGFODK@?$AAa?$AAr?$AA?9?$AAT?$AAN?$AA?$AA@ 100224b4     libucrt:lcidtoname_downlevel.obj
 0002:000034c0       ??_C@_1M@BHDLHFAF@?$AAe?$AAn?$AA?9?$AAZ?$AAA?$AA?$AA@ 100224c0     libucrt:lcidtoname_downlevel.obj
 0002:000034cc       ??_C@_1M@BMGIGLIF@?$AAe?$AAs?$AA?9?$AAD?$AAO?$AA?$AA@ 100224cc     libucrt:lcidtoname_downlevel.obj
 0002:000034d8       ??_C@_1BG@CMBHIPBE@?$AAs?$AAr?$AA?9?$AAB?$AAA?$AA?9?$AAC?$AAy?$AAr?$AAl?$AA?$AA@ 100224d8     libucrt:lcidtoname_downlevel.obj
 0002:000034f0       ??_C@_1O@HEDBLHNP@?$AAs?$AAm?$AAa?$AA?9?$AAS?$AAE?$AA?$AA@ 100224f0     libucrt:lcidtoname_downlevel.obj
 0002:00003500       ??_C@_1M@DAGCADIM@?$AAa?$AAr?$AA?9?$AAO?$AAM?$AA?$AA@ 10022500     libucrt:lcidtoname_downlevel.obj
 0002:0000350c       ??_C@_1M@FODLMICG@?$AAe?$AAn?$AA?9?$AAJ?$AAM?$AA?$AA@ 1002250c     libucrt:lcidtoname_downlevel.obj
 0002:00003518       ??_C@_1M@DNMLCIHB@?$AAe?$AAs?$AA?9?$AAV?$AAE?$AA?$AA@ 10022518     libucrt:lcidtoname_downlevel.obj
 0002:00003524       ??_C@_1O@EOKHMKJK@?$AAs?$AAm?$AAs?$AA?9?$AAF?$AAI?$AA?$AA@ 10022524     libucrt:lcidtoname_downlevel.obj
 0002:00003534       ??_C@_1M@CAFJMKOF@?$AAa?$AAr?$AA?9?$AAY?$AAE?$AA?$AA@ 10022534     libucrt:lcidtoname_downlevel.obj
 0002:00003540       ??_C@_1M@CBFHIJLI@?$AAe?$AAn?$AA?9?$AAC?$AAB?$AA?$AA@ 10022540     libucrt:lcidtoname_downlevel.obj
 0002:0000354c       ??_C@_1M@BGNFLDN@?$AAe?$AAs?$AA?9?$AAC?$AAO?$AA?$AA@ 1002254c     libucrt:lcidtoname_downlevel.obj
 0002:00003558       ??_C@_1O@JMPHMAMC@?$AAs?$AAm?$AAn?$AA?9?$AAF?$AAI?$AA?$AA@ 10022558     libucrt:lcidtoname_downlevel.obj
 0002:00003568       ??_C@_1M@JLANABKE@?$AAa?$AAr?$AA?9?$AAS?$AAY?$AA?$AA@ 10022568     libucrt:lcidtoname_downlevel.obj
 0002:00003574       ??_C@_1M@HPKGCFGN@?$AAe?$AAn?$AA?9?$AAB?$AAZ?$AA?$AA@ 10022574     libucrt:lcidtoname_downlevel.obj
 0002:00003580       ??_C@_1M@OLJCMLGM@?$AAe?$AAs?$AA?9?$AAP?$AAE?$AA?$AA@ 10022580     libucrt:lcidtoname_downlevel.obj
 0002:0000358c       ??_C@_1M@MKKGFKLE@?$AAa?$AAr?$AA?9?$AAJ?$AAO?$AA?$AA@ 1002258c     libucrt:lcidtoname_downlevel.obj
 0002:00003598       ??_C@_1M@EKPGLDNI@?$AAe?$AAn?$AA?9?$AAT?$AAT?$AA?$AA@ 10022598     libucrt:lcidtoname_downlevel.obj
 0002:000035a4       ??_C@_1M@OONGHFHE@?$AAe?$AAs?$AA?9?$AAA?$AAR?$AA?$AA@ 100225a4     libucrt:lcidtoname_downlevel.obj
 0002:000035b0       ??_C@_1M@OOJFGBHE@?$AAa?$AAr?$AA?9?$AAL?$AAB?$AA?$AA@ 100225b0     libucrt:lcidtoname_downlevel.obj
 0002:000035bc       ??_C@_1M@GCEJHNEG@?$AAe?$AAn?$AA?9?$AAZ?$AAW?$AA?$AA@ 100225bc     libucrt:lcidtoname_downlevel.obj
 0002:000035c8       ??_C@_1M@JNOCAHJI@?$AAe?$AAs?$AA?9?$AAE?$AAC?$AA?$AA@ 100225c8     libucrt:lcidtoname_downlevel.obj
 0002:000035d4       ??_C@_1M@JEFHPGGB@?$AAa?$AAr?$AA?9?$AAK?$AAW?$AA?$AA@ 100225d4     libucrt:lcidtoname_downlevel.obj
 0002:000035e0       ??_C@_1M@MLKIBJOJ@?$AAe?$AAn?$AA?9?$AAP?$AAH?$AA?$AA@ 100225e0     libucrt:lcidtoname_downlevel.obj
 0002:000035ec       ??_C@_1M@BDNIPEND@?$AAe?$AAs?$AA?9?$AAC?$AAL?$AA?$AA@ 100225ec     libucrt:lcidtoname_downlevel.obj
 0002:000035f8       ??_C@_1M@MPNMEKBD@?$AAa?$AAr?$AA?9?$AAA?$AAE?$AA?$AA@ 100225f8     libucrt:lcidtoname_downlevel.obj
 0002:00003604       ??_C@_1M@KBJALCPI@?$AAe?$AAs?$AA?9?$AAU?$AAY?$AA?$AA@ 10022604     libucrt:lcidtoname_downlevel.obj
 0002:00003610       ??_C@_1M@LLCCOAGA@?$AAa?$AAr?$AA?9?$AAB?$AAH?$AA?$AA@ 10022610     libucrt:lcidtoname_downlevel.obj
 0002:0000361c       ??_C@_1M@PBFNCDEL@?$AAe?$AAs?$AA?9?$AAP?$AAY?$AA?$AA@ 1002261c     libucrt:lcidtoname_downlevel.obj
 0002:00003628       ??_C@_1M@EDGINPNP@?$AAa?$AAr?$AA?9?$AAQ?$AAA?$AA?$AA@ 10022628     libucrt:lcidtoname_downlevel.obj
 0002:00003634       ??_C@_1M@MKDBIIJI@?$AAe?$AAs?$AA?9?$AAB?$AAO?$AA?$AA@ 10022634     libucrt:lcidtoname_downlevel.obj
 0002:00003640       ??_C@_1M@CPKKEBLD@?$AAe?$AAs?$AA?9?$AAS?$AAV?$AA?$AA@ 10022640     libucrt:lcidtoname_downlevel.obj
 0002:0000364c       ??_C@_1M@NDBGMMJL@?$AAe?$AAs?$AA?9?$AAH?$AAN?$AA?$AA@ 1002264c     libucrt:lcidtoname_downlevel.obj
 0002:00003658       ??_C@_1M@JIJIBHDP@?$AAe?$AAs?$AA?9?$AAN?$AAI?$AA?$AA@ 10022658     libucrt:lcidtoname_downlevel.obj
 0002:00003664       ??_C@_1M@CGFMKEEK@?$AAe?$AAs?$AA?9?$AAP?$AAR?$AA?$AA@ 10022664     libucrt:lcidtoname_downlevel.obj
 0002:00003670       ??_C@_1O@ICJHKIIK@?$AAz?$AAh?$AA?9?$AAC?$AAH?$AAT?$AA?$AA@ 10022670     libucrt:lcidtoname_downlevel.obj
 0002:00003680       ??_C@_15CLNEJCE@?$AAs?$AAr?$AA?$AA@ 10022680     libucrt:lcidtoname_downlevel.obj
 0002:00003da8       ??_C@_1M@KAHEKEIG@?$AAa?$AAf?$AA?9?$AAz?$AAa?$AA?$AA@ 10022da8     libucrt:lcidtoname_downlevel.obj
 0002:00003db4       ??_C@_1M@GIECOABL@?$AAa?$AAr?$AA?9?$AAa?$AAe?$AA?$AA@ 10022db4     libucrt:lcidtoname_downlevel.obj
 0002:00003dc0       ??_C@_1M@BMLMEKGI@?$AAa?$AAr?$AA?9?$AAb?$AAh?$AA?$AA@ 10022dc0     libucrt:lcidtoname_downlevel.obj
 0002:00003dcc       ??_C@_1M@DAPFDGGB@?$AAa?$AAr?$AA?9?$AAd?$AAz?$AA?$AA@ 10022dcc     libucrt:lcidtoname_downlevel.obj
 0002:00003dd8       ??_C@_1M@FJNKGKIG@?$AAa?$AAr?$AA?9?$AAe?$AAg?$AA?$AA@ 10022dd8     libucrt:lcidtoname_downlevel.obj
 0002:00003de4       ??_C@_1M@FLGKKCLO@?$AAa?$AAr?$AA?9?$AAi?$AAq?$AA?$AA@ 10022de4     libucrt:lcidtoname_downlevel.obj
 0002:00003df0       ??_C@_1M@GNDIPALM@?$AAa?$AAr?$AA?9?$AAj?$AAo?$AA?$AA@ 10022df0     libucrt:lcidtoname_downlevel.obj
 0002:00003dfc       ??_C@_1M@DDMJFMGJ@?$AAa?$AAr?$AA?9?$AAk?$AAw?$AA?$AA@ 10022dfc     libucrt:lcidtoname_downlevel.obj
 0002:00003e08       ??_C@_1M@EJALMLHM@?$AAa?$AAr?$AA?9?$AAl?$AAb?$AA?$AA@ 10022e08     libucrt:lcidtoname_downlevel.obj
 0002:00003e14       ??_C@_1M@MOBDBLOC@?$AAa?$AAr?$AA?9?$AAl?$AAy?$AA?$AA@ 10022e14     libucrt:lcidtoname_downlevel.obj
 0002:00003e20       ??_C@_1M@JAOCLHDH@?$AAa?$AAr?$AA?9?$AAm?$AAa?$AA?$AA@ 10022e20     libucrt:lcidtoname_downlevel.obj
 0002:00003e2c       ??_C@_1M@JHPMKJIE@?$AAa?$AAr?$AA?9?$AAo?$AAm?$AA?$AA@ 10022e2c     libucrt:lcidtoname_downlevel.obj
 0002:00003e38       ??_C@_1M@OEPGHFNH@?$AAa?$AAr?$AA?9?$AAq?$AAa?$AA?$AA@ 10022e38     libucrt:lcidtoname_downlevel.obj
 0002:00003e44       ??_C@_1M@KJDONENM@?$AAa?$AAr?$AA?9?$AAs?$AAa?$AA?$AA@ 10022e44     libucrt:lcidtoname_downlevel.obj
 0002:00003e50       ??_C@_1M@DMJDKLKM@?$AAa?$AAr?$AA?9?$AAs?$AAy?$AA?$AA@ 10022e50     libucrt:lcidtoname_downlevel.obj
 0002:00003e5c       ??_C@_1M@OMFIPEDC@?$AAa?$AAr?$AA?9?$AAt?$AAn?$AA?$AA@ 10022e5c     libucrt:lcidtoname_downlevel.obj
 0002:00003e68       ??_C@_1M@IHMHGAON@?$AAa?$AAr?$AA?9?$AAy?$AAe?$AA?$AA@ 10022e68     libucrt:lcidtoname_downlevel.obj
 0002:00003e74       ??_C@_1BG@KDCPGJGB@?$AAa?$AAz?$AA?9?$AAa?$AAz?$AA?9?$AAc?$AAy?$AAr?$AAl?$AA?$AA@ 10022e74     libucrt:lcidtoname_downlevel.obj
 0002:00003e8c       ??_C@_1BG@IBCKDDOE@?$AAa?$AAz?$AA?9?$AAa?$AAz?$AA?9?$AAl?$AAa?$AAt?$AAn?$AA?$AA@ 10022e8c     libucrt:lcidtoname_downlevel.obj
 0002:00003ea4       ??_C@_1M@EGPFDCPD@?$AAb?$AAe?$AA?9?$AAb?$AAy?$AA?$AA@ 10022ea4     libucrt:lcidtoname_downlevel.obj
 0002:00003eb0       ??_C@_1M@PCMGMCGC@?$AAb?$AAg?$AA?9?$AAb?$AAg?$AA?$AA@ 10022eb0     libucrt:lcidtoname_downlevel.obj
 0002:00003ebc       ??_C@_1M@BJBMFGOB@?$AAb?$AAn?$AA?9?$AAi?$AAn?$AA?$AA@ 10022ebc     libucrt:lcidtoname_downlevel.obj
 0002:00003ec8       ??_C@_1BG@EAKMMACD@?$AAb?$AAs?$AA?9?$AAb?$AAa?$AA?9?$AAl?$AAa?$AAt?$AAn?$AA?$AA@ 10022ec8     libucrt:lcidtoname_downlevel.obj
 0002:00003ee0       ??_C@_1M@KGADAODK@?$AAc?$AAa?$AA?9?$AAe?$AAs?$AA?$AA@ 10022ee0     libucrt:lcidtoname_downlevel.obj
 0002:00003eec       ??_C@_1M@COAJPDHI@?$AAc?$AAs?$AA?9?$AAc?$AAz?$AA?$AA@ 10022eec     libucrt:lcidtoname_downlevel.obj
 0002:00003ef8       ??_C@_1M@DHBHFONH@?$AAc?$AAy?$AA?9?$AAg?$AAb?$AA?$AA@ 10022ef8     libucrt:lcidtoname_downlevel.obj
 0002:00003f04       ??_C@_1M@IMGKELGA@?$AAd?$AAa?$AA?9?$AAd?$AAk?$AA?$AA@ 10022f04     libucrt:lcidtoname_downlevel.obj
 0002:00003f10       ??_C@_1M@NNDGDNGA@?$AAd?$AAe?$AA?9?$AAa?$AAt?$AA?$AA@ 10022f10     libucrt:lcidtoname_downlevel.obj
 0002:00003f1c       ??_C@_1M@IKDBHEEM@?$AAd?$AAe?$AA?9?$AAc?$AAh?$AA?$AA@ 10022f1c     libucrt:lcidtoname_downlevel.obj
 0002:00003f28       ??_C@_1M@GFFOJMCJ@?$AAd?$AAe?$AA?9?$AAd?$AAe?$AA?$AA@ 10022f28     libucrt:lcidtoname_downlevel.obj
 0002:00003f34       ??_C@_1M@MDNLKBPM@?$AAd?$AAe?$AA?9?$AAl?$AAi?$AA?$AA@ 10022f34     libucrt:lcidtoname_downlevel.obj
 0002:00003f40       ??_C@_1M@NJBEEJNL@?$AAd?$AAe?$AA?9?$AAl?$AAu?$AA?$AA@ 10022f40     libucrt:lcidtoname_downlevel.obj
 0002:00003f4c       ??_C@_1O@GNNELBAP@?$AAd?$AAi?$AAv?$AA?9?$AAm?$AAv?$AA?$AA@ 10022f4c     libucrt:lcidtoname_downlevel.obj
 0002:00003f5c       ??_C@_1M@EJLEOGAE@?$AAe?$AAl?$AA?9?$AAg?$AAr?$AA?$AA@ 10022f5c     libucrt:lcidtoname_downlevel.obj
 0002:00003f68       ??_C@_1M@GMPONJN@?$AAe?$AAn?$AA?9?$AAa?$AAu?$AA?$AA@ 10022f68     libucrt:lcidtoname_downlevel.obj
 0002:00003f74       ??_C@_1M@NIDIIPGF@?$AAe?$AAn?$AA?9?$AAb?$AAz?$AA?$AA@ 10022f74     libucrt:lcidtoname_downlevel.obj
 0002:00003f80       ??_C@_1M@JEHMIMFO@?$AAe?$AAn?$AA?9?$AAc?$AAa?$AA?$AA@ 10022f80     libucrt:lcidtoname_downlevel.obj
 0002:00003f8c       ??_C@_1M@IGMJCDLA@?$AAe?$AAn?$AA?9?$AAc?$AAb?$AA?$AA@ 10022f8c     libucrt:lcidtoname_downlevel.obj
 0002:00003f98       ??_C@_1M@BNFIGBKG@?$AAe?$AAn?$AA?9?$AAg?$AAb?$AA?$AA@ 10022f98     libucrt:lcidtoname_downlevel.obj
 0002:00003fa4       ??_C@_1M@LKIFDIGP@?$AAe?$AAn?$AA?9?$AAi?$AAe?$AA?$AA@ 10022fa4     libucrt:lcidtoname_downlevel.obj
 0002:00003fb0       ??_C@_1M@PJKFGCCO@?$AAe?$AAn?$AA?9?$AAj?$AAm?$AA?$AA@ 10022fb0     libucrt:lcidtoname_downlevel.obj
 0002:00003fbc       ??_C@_1M@KPPKEPBO@?$AAe?$AAn?$AA?9?$AAn?$AAz?$AA?$AA@ 10022fbc     libucrt:lcidtoname_downlevel.obj
 0002:00003fc8       ??_C@_1M@GMDGLDOB@?$AAe?$AAn?$AA?9?$AAp?$AAh?$AA?$AA@ 10022fc8     libucrt:lcidtoname_downlevel.obj
 0002:00003fd4       ??_C@_1M@ONGIBJNA@?$AAe?$AAn?$AA?9?$AAt?$AAt?$AA?$AA@ 10022fd4     libucrt:lcidtoname_downlevel.obj
 0002:00003fe0       ??_C@_1M@LLODPCMM@?$AAe?$AAn?$AA?9?$AAu?$AAs?$AA?$AA@ 10022fe0     libucrt:lcidtoname_downlevel.obj
 0002:00003fec       ??_C@_1M@LAKFNPAN@?$AAe?$AAn?$AA?9?$AAz?$AAa?$AA?$AA@ 10022fec     libucrt:lcidtoname_downlevel.obj
 0002:00003ff8       ??_C@_1M@MFNHNHEO@?$AAe?$AAn?$AA?9?$AAz?$AAw?$AA?$AA@ 10022ff8     libucrt:lcidtoname_downlevel.obj
 0002:00004004       ??_C@_1M@EJEINPHM@?$AAe?$AAs?$AA?9?$AAa?$AAr?$AA?$AA@ 10023004     libucrt:lcidtoname_downlevel.obj
 0002:00004010       ??_C@_1M@GNKPCCJA@?$AAe?$AAs?$AA?9?$AAb?$AAo?$AA?$AA@ 10023010     libucrt:lcidtoname_downlevel.obj
 0002:0000401c       ??_C@_1M@LEEGFONL@?$AAe?$AAs?$AA?9?$AAc?$AAl?$AA?$AA@ 1002301c     libucrt:lcidtoname_downlevel.obj
 0002:00004028       ??_C@_1M@KGPDPBDF@?$AAe?$AAs?$AA?9?$AAc?$AAo?$AA?$AA@ 10023028     libucrt:lcidtoname_downlevel.obj
 0002:00004034       ??_C@_1M@EIAHOHH@?$AAe?$AAs?$AA?9?$AAc?$AAr?$AA?$AA@ 10023034     libucrt:lcidtoname_downlevel.obj
 0002:00004040       ??_C@_1M@LLPGMBIN@?$AAe?$AAs?$AA?9?$AAd?$AAo?$AA?$AA@ 10023040     libucrt:lcidtoname_downlevel.obj
 0002:0000404c       ??_C@_1M@DKHMKNJA@?$AAe?$AAs?$AA?9?$AAe?$AAc?$AA?$AA@ 1002304c     libucrt:lcidtoname_downlevel.obj
 0002:00004058       ??_C@_1M@GKGFPKAP@?$AAe?$AAs?$AA?9?$AAe?$AAs?$AA?$AA@ 10023058     libucrt:lcidtoname_downlevel.obj
 0002:00004064       ??_C@_1M@LKHKGDLN@?$AAe?$AAs?$AA?9?$AAg?$AAt?$AA?$AA@ 10023064     libucrt:lcidtoname_downlevel.obj
 0002:00004070       ??_C@_1M@HEIIGGJD@?$AAe?$AAs?$AA?9?$AAh?$AAn?$AA?$AA@ 10023070     libucrt:lcidtoname_downlevel.obj
 0002:0000407c       ??_C@_1M@FBDHPPGD@?$AAe?$AAs?$AA?9?$AAm?$AAx?$AA?$AA@ 1002307c     libucrt:lcidtoname_downlevel.obj
 0002:00004088       ??_C@_1M@DPAGLNDH@?$AAe?$AAs?$AA?9?$AAn?$AAi?$AA?$AA@ 10023088     libucrt:lcidtoname_downlevel.obj
 0002:00004094       ??_C@_1M@MDGOPGDD@?$AAe?$AAs?$AA?9?$AAp?$AAa?$AA?$AA@ 10023094     libucrt:lcidtoname_downlevel.obj
 0002:000040a0       ??_C@_1M@EMAMGBGE@?$AAe?$AAs?$AA?9?$AAp?$AAe?$AA?$AA@ 100230a0     libucrt:lcidtoname_downlevel.obj
 0002:000040ac       ??_C@_1M@IBMCAOEC@?$AAe?$AAs?$AA?9?$AAp?$AAr?$AA?$AA@ 100230ac     libucrt:lcidtoname_downlevel.obj
 0002:000040b8       ??_C@_1M@FGMDIJED@?$AAe?$AAs?$AA?9?$AAp?$AAy?$AA?$AA@ 100230b8     libucrt:lcidtoname_downlevel.obj
 0002:000040c4       ??_C@_1M@IIDEOLLL@?$AAe?$AAs?$AA?9?$AAs?$AAv?$AA?$AA@ 100230c4     libucrt:lcidtoname_downlevel.obj
 0002:000040d0       ??_C@_1M@GAOBIPA@?$AAe?$AAs?$AA?9?$AAu?$AAy?$AA?$AA@ 100230d0     libucrt:lcidtoname_downlevel.obj
 0002:000040dc       ??_C@_1M@JKFFICHJ@?$AAe?$AAs?$AA?9?$AAv?$AAe?$AA?$AA@ 100230dc     libucrt:lcidtoname_downlevel.obj
 0002:000040e8       ??_C@_1M@PNMLOJDF@?$AAe?$AAt?$AA?9?$AAe?$AAe?$AA?$AA@ 100230e8     libucrt:lcidtoname_downlevel.obj
 0002:000040f4       ??_C@_1M@GHHLIKEI@?$AAe?$AAu?$AA?9?$AAe?$AAs?$AA?$AA@ 100230f4     libucrt:lcidtoname_downlevel.obj
 0002:00004100       ??_C@_1M@PBNONODE@?$AAf?$AAa?$AA?9?$AAi?$AAr?$AA?$AA@ 10023100     libucrt:lcidtoname_downlevel.obj
 0002:0000410c       ??_C@_1M@JEEHPMIL@?$AAf?$AAi?$AA?9?$AAf?$AAi?$AA?$AA@ 1002310c     libucrt:lcidtoname_downlevel.obj
 0002:00004118       ??_C@_1M@LMDCNDBA@?$AAf?$AAo?$AA?9?$AAf?$AAo?$AA?$AA@ 10023118     libucrt:lcidtoname_downlevel.obj
 0002:00004124       ??_C@_1M@JKEOHLDK@?$AAf?$AAr?$AA?9?$AAb?$AAe?$AA?$AA@ 10023124     libucrt:lcidtoname_downlevel.obj
 0002:00004130       ??_C@_1M@NOHADPMI@?$AAf?$AAr?$AA?9?$AAc?$AAa?$AA?$AA@ 10023130     libucrt:lcidtoname_downlevel.obj
 0002:0000413c       ??_C@_1M@KDHIHAEC@?$AAf?$AAr?$AA?9?$AAc?$AAh?$AA?$AA@ 1002313c     libucrt:lcidtoname_downlevel.obj
 0002:00004148       ??_C@_1M@MMBBFGAK@?$AAf?$AAr?$AA?9?$AAf?$AAr?$AA?$AA@ 10023148     libucrt:lcidtoname_downlevel.obj
 0002:00004154       ??_C@_1M@PAFNENNF@?$AAf?$AAr?$AA?9?$AAl?$AAu?$AA?$AA@ 10023154     libucrt:lcidtoname_downlevel.obj
 0002:00004160       ??_C@_1M@EOHDJGDD@?$AAf?$AAr?$AA?9?$AAm?$AAc?$AA?$AA@ 10023160     libucrt:lcidtoname_downlevel.obj
 0002:0000416c       ??_C@_1M@FAPLLOPF@?$AAg?$AAl?$AA?9?$AAe?$AAs?$AA?$AA@ 1002316c     libucrt:lcidtoname_downlevel.obj
 0002:00004178       ??_C@_1M@FOPBFLOO@?$AAg?$AAu?$AA?9?$AAi?$AAn?$AA?$AA@ 10023178     libucrt:lcidtoname_downlevel.obj
 0002:00004184       ??_C@_1M@KBMCINPM@?$AAh?$AAe?$AA?9?$AAi?$AAl?$AA?$AA@ 10023184     libucrt:lcidtoname_downlevel.obj
 0002:00004190       ??_C@_1M@BBPHKFPJ@?$AAh?$AAi?$AA?9?$AAi?$AAn?$AA?$AA@ 10023190     libucrt:lcidtoname_downlevel.obj
 0002:0000419c       ??_C@_1M@PMBNDPHD@?$AAh?$AAr?$AA?9?$AAb?$AAa?$AA?$AA@ 1002319c     libucrt:lcidtoname_downlevel.obj
 0002:000041a8       ??_C@_1M@BPCKOEGE@?$AAh?$AAr?$AA?9?$AAh?$AAr?$AA?$AA@ 100231a8     libucrt:lcidtoname_downlevel.obj
 0002:000041b4       ??_C@_1M@GACBMHKE@?$AAh?$AAu?$AA?9?$AAh?$AAu?$AA?$AA@ 100231b4     libucrt:lcidtoname_downlevel.obj
 0002:000041c0       ??_C@_1M@MILPAJJC@?$AAh?$AAy?$AA?9?$AAa?$AAm?$AA?$AA@ 100231c0     libucrt:lcidtoname_downlevel.obj
 0002:000041cc       ??_C@_1M@BABBICEC@?$AAi?$AAd?$AA?9?$AAi?$AAd?$AA?$AA@ 100231cc     libucrt:lcidtoname_downlevel.obj
 0002:000041d8       ??_C@_1M@BIKNHHPF@?$AAi?$AAs?$AA?9?$AAi?$AAs?$AA?$AA@ 100231d8     libucrt:lcidtoname_downlevel.obj
 0002:000041e4       ??_C@_1M@NMPCJPHE@?$AAi?$AAt?$AA?9?$AAc?$AAh?$AA?$AA@ 100231e4     libucrt:lcidtoname_downlevel.obj
 0002:000041f0       ??_C@_1M@GHKGFEDF@?$AAi?$AAt?$AA?9?$AAi?$AAt?$AA?$AA@ 100231f0     libucrt:lcidtoname_downlevel.obj
 0002:000041fc       ??_C@_1M@NIEJCJJA@?$AAj?$AAa?$AA?9?$AAj?$AAp?$AA?$AA@ 100231fc     libucrt:lcidtoname_downlevel.obj
 0002:00004208       ??_C@_1M@JILFNBIM@?$AAk?$AAa?$AA?9?$AAg?$AAe?$AA?$AA@ 10023208     libucrt:lcidtoname_downlevel.obj
 0002:00004214       ??_C@_1M@PACPMGPH@?$AAk?$AAk?$AA?9?$AAk?$AAz?$AA?$AA@ 10023214     libucrt:lcidtoname_downlevel.obj
 0002:00004220       ??_C@_1M@IELFGMHA@?$AAk?$AAn?$AA?9?$AAi?$AAn?$AA?$AA@ 10023220     libucrt:lcidtoname_downlevel.obj
 0002:0000422c       ??_C@_1O@IBBJHCH@?$AAk?$AAo?$AAk?$AA?9?$AAi?$AAn?$AA?$AA@ 1002322c     libucrt:lcidtoname_downlevel.obj
 0002:0000423c       ??_C@_1M@DMHAEOGC@?$AAk?$AAo?$AA?9?$AAk?$AAr?$AA?$AA@ 1002323c     libucrt:lcidtoname_downlevel.obj
 0002:00004248       ??_C@_1M@HBAHBIGA@?$AAk?$AAy?$AA?9?$AAk?$AAg?$AA?$AA@ 10023248     libucrt:lcidtoname_downlevel.obj
 0002:00004254       ??_C@_1M@KPMILCJG@?$AAl?$AAt?$AA?9?$AAl?$AAt?$AA?$AA@ 10023254     libucrt:lcidtoname_downlevel.obj
 0002:00004260       ??_C@_1M@BDEKKCA@?$AAl?$AAv?$AA?9?$AAl?$AAv?$AA?$AA@ 10023260     libucrt:lcidtoname_downlevel.obj
 0002:0000426c       ??_C@_1M@ELCKCCJJ@?$AAm?$AAi?$AA?9?$AAn?$AAz?$AA?$AA@ 1002326c     libucrt:lcidtoname_downlevel.obj
 0002:00004278       ??_C@_1M@CBOOLAPA@?$AAm?$AAk?$AA?9?$AAm?$AAk?$AA?$AA@ 10023278     libucrt:lcidtoname_downlevel.obj
 0002:00004284       ??_C@_1M@GPHNBJKN@?$AAm?$AAl?$AA?9?$AAi?$AAn?$AA?$AA@ 10023284     libucrt:lcidtoname_downlevel.obj
 0002:00004290       ??_C@_1M@PABJILIG@?$AAm?$AAn?$AA?9?$AAm?$AAn?$AA?$AA@ 10023290     libucrt:lcidtoname_downlevel.obj
 0002:0000429c       ??_C@_1M@FGBKKIPG@?$AAm?$AAr?$AA?9?$AAi?$AAn?$AA?$AA@ 1002329c     libucrt:lcidtoname_downlevel.obj
 0002:000042a8       ??_C@_1M@NDBPDDAL@?$AAm?$AAs?$AA?9?$AAb?$AAn?$AA?$AA@ 100232a8     libucrt:lcidtoname_downlevel.obj
 0002:000042b4       ??_C@_1M@OPIHOOPI@?$AAm?$AAs?$AA?9?$AAm?$AAy?$AA?$AA@ 100232b4     libucrt:lcidtoname_downlevel.obj
 0002:000042c0       ??_C@_1M@PPDBCNFM@?$AAm?$AAt?$AA?9?$AAm?$AAt?$AA?$AA@ 100232c0     libucrt:lcidtoname_downlevel.obj
 0002:000042cc       ??_C@_1M@KDJDKMDD@?$AAn?$AAb?$AA?9?$AAn?$AAo?$AA?$AA@ 100232cc     libucrt:lcidtoname_downlevel.obj
 0002:000042d8       ??_C@_1M@KFCFLMJP@?$AAn?$AAl?$AA?9?$AAb?$AAe?$AA?$AA@ 100232d8     libucrt:lcidtoname_downlevel.obj
 0002:000042e4       ??_C@_1M@KPOPDDGO@?$AAn?$AAl?$AA?9?$AAn?$AAl?$AA?$AA@ 100232e4     libucrt:lcidtoname_downlevel.obj
 0002:000042f0       ??_C@_1M@LJKPEMLN@?$AAn?$AAn?$AA?9?$AAn?$AAo?$AA?$AA@ 100232f0     libucrt:lcidtoname_downlevel.obj
 0002:000042fc       ??_C@_1M@BDGHHBFL@?$AAn?$AAs?$AA?9?$AAz?$AAa?$AA?$AA@ 100232fc     libucrt:lcidtoname_downlevel.obj
 0002:00004308       ??_C@_1M@IDEHOAP@?$AAp?$AAa?$AA?9?$AAi?$AAn?$AA?$AA@ 10023308     libucrt:lcidtoname_downlevel.obj
 0002:00004314       ??_C@_1M@HDBKGOGH@?$AAp?$AAl?$AA?9?$AAp?$AAl?$AA?$AA@ 10023314     libucrt:lcidtoname_downlevel.obj
 0002:00004320       ??_C@_1M@LJLLCMEH@?$AAp?$AAt?$AA?9?$AAb?$AAr?$AA?$AA@ 10023320     libucrt:lcidtoname_downlevel.obj
 0002:0000432c       ??_C@_1M@NCMONAAL@?$AAp?$AAt?$AA?9?$AAp?$AAt?$AA?$AA@ 1002332c     libucrt:lcidtoname_downlevel.obj
 0002:00004338       ??_C@_1O@EAKMAJDN@?$AAq?$AAu?$AAz?$AA?9?$AAb?$AAo?$AA?$AA@ 10023338     libucrt:lcidtoname_downlevel.obj
 0002:00004348       ??_C@_1O@BHHPIGDN@?$AAq?$AAu?$AAz?$AA?9?$AAe?$AAc?$AA?$AA@ 10023348     libucrt:lcidtoname_downlevel.obj
 0002:00004358       ??_C@_1O@GBAPEKMJ@?$AAq?$AAu?$AAz?$AA?9?$AAp?$AAe?$AA?$AA@ 10023358     libucrt:lcidtoname_downlevel.obj
 0002:00004368       ??_C@_1M@CLGLEFBO@?$AAr?$AAo?$AA?9?$AAr?$AAo?$AA?$AA@ 10023368     libucrt:lcidtoname_downlevel.obj
 0002:00004374       ??_C@_1M@CEEDODME@?$AAr?$AAu?$AA?9?$AAr?$AAu?$AA?$AA@ 10023374     libucrt:lcidtoname_downlevel.obj
 0002:00004380       ??_C@_1M@HPKKKMPP@?$AAs?$AAa?$AA?9?$AAi?$AAn?$AA?$AA@ 10023380     libucrt:lcidtoname_downlevel.obj
 0002:0000438c       ??_C@_1M@BKMAIGOJ@?$AAs?$AAe?$AA?9?$AAf?$AAi?$AA?$AA@ 1002338c     libucrt:lcidtoname_downlevel.obj
 0002:00004398       ??_C@_1M@NDPIFLFI@?$AAs?$AAe?$AA?9?$AAn?$AAo?$AA?$AA@ 10023398     libucrt:lcidtoname_downlevel.obj
 0002:000043a4       ??_C@_1M@DANKKHJ@?$AAs?$AAe?$AA?9?$AAs?$AAe?$AA?$AA@ 100233a4     libucrt:lcidtoname_downlevel.obj
 0002:000043b0       ??_C@_1M@PNBLONPJ@?$AAs?$AAk?$AA?9?$AAs?$AAk?$AA?$AA@ 100233b0     libucrt:lcidtoname_downlevel.obj
 0002:000043bc       ??_C@_1M@LFMODOAL@?$AAs?$AAl?$AA?9?$AAs?$AAi?$AA?$AA@ 100233bc     libucrt:lcidtoname_downlevel.obj
 0002:000043c8       ??_C@_1O@DFKOMPG@?$AAs?$AAm?$AAa?$AA?9?$AAn?$AAo?$AA?$AA@ 100233c8     libucrt:lcidtoname_downlevel.obj
 0002:000043d8       ??_C@_1O@NDKPBNNH@?$AAs?$AAm?$AAa?$AA?9?$AAs?$AAe?$AA?$AA@ 100233d8     libucrt:lcidtoname_downlevel.obj
 0002:000043e8       ??_C@_1O@PLLKBHAB@?$AAs?$AAm?$AAj?$AA?9?$AAn?$AAo?$AA?$AA@ 100233e8     libucrt:lcidtoname_downlevel.obj
 0002:000043f8       ??_C@_1O@CLEPOGCA@?$AAs?$AAm?$AAj?$AA?9?$AAs?$AAe?$AA?$AA@ 100233f8     libucrt:lcidtoname_downlevel.obj
 0002:00004408       ??_C@_1O@DLGJGKMK@?$AAs?$AAm?$AAn?$AA?9?$AAf?$AAi?$AA?$AA@ 10023408     libucrt:lcidtoname_downlevel.obj
 0002:00004418       ??_C@_1O@OJDJGAJC@?$AAs?$AAm?$AAs?$AA?9?$AAf?$AAi?$AA?$AA@ 10023418     libucrt:lcidtoname_downlevel.obj
 0002:00004428       ??_C@_1M@BOFOGHPB@?$AAs?$AAq?$AA?9?$AAa?$AAl?$AA?$AA@ 10023428     libucrt:lcidtoname_downlevel.obj
 0002:00004434       ??_C@_1BG@LJBBIPGB@?$AAs?$AAr?$AA?9?$AAb?$AAa?$AA?9?$AAc?$AAy?$AAr?$AAl?$AA?$AA@ 10023434     libucrt:lcidtoname_downlevel.obj
 0002:0000444c       ??_C@_1BG@JLBENFOE@?$AAs?$AAr?$AA?9?$AAb?$AAa?$AA?9?$AAl?$AAa?$AAt?$AAn?$AA?$AA@ 1002344c     libucrt:lcidtoname_downlevel.obj
 0002:00004464       ??_C@_1BG@KODPNHE@?$AAs?$AAr?$AA?9?$AAs?$AAp?$AA?9?$AAc?$AAy?$AAr?$AAl?$AA?$AA@ 10023464     libucrt:lcidtoname_downlevel.obj
 0002:0000447c       ??_C@_1BG@CIOGKHPB@?$AAs?$AAr?$AA?9?$AAs?$AAp?$AA?9?$AAl?$AAa?$AAt?$AAn?$AA?$AA@ 1002347c     libucrt:lcidtoname_downlevel.obj
 0002:00004494       ??_C@_1M@NGFJLMAC@?$AAs?$AAv?$AA?9?$AAf?$AAi?$AA?$AA@ 10023494     libucrt:lcidtoname_downlevel.obj
 0002:000044a0       ??_C@_1M@MPJEJAJC@?$AAs?$AAv?$AA?9?$AAs?$AAe?$AA?$AA@ 100234a0     libucrt:lcidtoname_downlevel.obj
 0002:000044ac       ??_C@_1M@MPNDHLFK@?$AAs?$AAw?$AA?9?$AAk?$AAe?$AA?$AA@ 100234ac     libucrt:lcidtoname_downlevel.obj
 0002:000044b8       ??_C@_1O@KOHBJJI@?$AAs?$AAy?$AAr?$AA?9?$AAs?$AAy?$AA?$AA@ 100234b8     libucrt:lcidtoname_downlevel.obj
 0002:000044c8       ??_C@_1M@LDCEFHA@?$AAt?$AAa?$AA?9?$AAi?$AAn?$AA?$AA@ 100234c8     libucrt:lcidtoname_downlevel.obj
 0002:000044d4       ??_C@_1M@CNJOFAK@?$AAt?$AAe?$AA?9?$AAi?$AAn?$AA?$AA@ 100234d4     libucrt:lcidtoname_downlevel.obj
 0002:000044e0       ??_C@_1M@GNAECACD@?$AAt?$AAh?$AA?9?$AAt?$AAh?$AA?$AA@ 100234e0     libucrt:lcidtoname_downlevel.obj
 0002:000044ec       ??_C@_1M@CHBIHOJO@?$AAt?$AAn?$AA?9?$AAz?$AAa?$AA?$AA@ 100234ec     libucrt:lcidtoname_downlevel.obj
 0002:000044f8       ??_C@_1M@GCCMIGPJ@?$AAt?$AAr?$AA?9?$AAt?$AAr?$AA?$AA@ 100234f8     libucrt:lcidtoname_downlevel.obj
 0002:00004504       ??_C@_1M@CELMCNBK@?$AAt?$AAt?$AA?9?$AAr?$AAu?$AA?$AA@ 10023504     libucrt:lcidtoname_downlevel.obj
 0002:00004510       ??_C@_1M@KLMCELGA@?$AAu?$AAk?$AA?9?$AAu?$AAa?$AA?$AA@ 10023510     libucrt:lcidtoname_downlevel.obj
 0002:0000451c       ??_C@_1M@EPAJJAJF@?$AAu?$AAr?$AA?9?$AAp?$AAk?$AA?$AA@ 1002351c     libucrt:lcidtoname_downlevel.obj
 0002:00004528       ??_C@_1BG@GEGPMCDJ@?$AAu?$AAz?$AA?9?$AAu?$AAz?$AA?9?$AAc?$AAy?$AAr?$AAl?$AA?$AA@ 10023528     libucrt:lcidtoname_downlevel.obj
 0002:00004540       ??_C@_1BG@EGGKJILM@?$AAu?$AAz?$AA?9?$AAu?$AAz?$AA?9?$AAl?$AAa?$AAt?$AAn?$AA?$AA@ 10023540     libucrt:lcidtoname_downlevel.obj
 0002:00004558       ??_C@_1M@GFOCLFF@?$AAv?$AAi?$AA?9?$AAv?$AAn?$AA?$AA@ 10023558     libucrt:lcidtoname_downlevel.obj
 0002:00004564       ??_C@_1M@CPAMEDFI@?$AAx?$AAh?$AA?9?$AAz?$AAa?$AA?$AA@ 10023564     libucrt:lcidtoname_downlevel.obj
 0002:00004570       ??_C@_1O@EBKIFIGN@?$AAz?$AAh?$AA?9?$AAc?$AAh?$AAs?$AA?$AA@ 10023570     libucrt:lcidtoname_downlevel.obj
 0002:00004580       ??_C@_1O@NMHPGANE@?$AAz?$AAh?$AA?9?$AAc?$AAh?$AAt?$AA?$AA@ 10023580     libucrt:lcidtoname_downlevel.obj
 0002:00004590       ??_C@_1M@LPINJOMC@?$AAz?$AAh?$AA?9?$AAc?$AAn?$AA?$AA@ 10023590     libucrt:lcidtoname_downlevel.obj
 0002:0000459c       ??_C@_1M@OCJEJODD@?$AAz?$AAh?$AA?9?$AAh?$AAk?$AA?$AA@ 1002359c     libucrt:lcidtoname_downlevel.obj
 0002:000045a8       ??_C@_1M@DNDLJINH@?$AAz?$AAh?$AA?9?$AAm?$AAo?$AA?$AA@ 100235a8     libucrt:lcidtoname_downlevel.obj
 0002:000045b4       ??_C@_1M@MBFDNDND@?$AAz?$AAh?$AA?9?$AAs?$AAg?$AA?$AA@ 100235b4     libucrt:lcidtoname_downlevel.obj
 0002:000045c0       ??_C@_1M@IMEPLEPE@?$AAz?$AAh?$AA?9?$AAt?$AAw?$AA?$AA@ 100235c0     libucrt:lcidtoname_downlevel.obj
 0002:000045cc       ??_C@_1M@BBGHNHJP@?$AAz?$AAu?$AA?9?$AAz?$AAa?$AA?$AA@ 100235cc     libucrt:lcidtoname_downlevel.obj
 0002:000045d8       ?large_power_data@?1??multiply_by_power_of_ten@__crt_strtox@@YA_NAAUbig_integer@2@I@Z@4QBIB 100235d8     libucrt:cfout.obj
 0002:00004ee0       ?large_power_indices@?1??multiply_by_power_of_ten@__crt_strtox@@YA_NAAUbig_integer@2@I@Z@4QBUunpack_index@?1??12@YA_N0I@Z@B 10023ee0     libucrt:cfout.obj
 0002:00004f78       ?small_powers_of_ten@?6??multiply_by_power_of_ten@__crt_strtox@@YA_NAAUbig_integer@2@I@Z@4QBIB 10023f78     libucrt:cfout.obj
 0002:00004f9c       ??_C@_01GBGANLPD@0?$AA@    10023f9c     libucrt:cfout.obj
 0002:00004fa0       ??_C@_05DNEBIAHO@1?$CDINF?$AA@ 10023fa0     libucrt:cfout.obj
 0002:00004fa8       ??_C@_06IMKFLFPG@1?$CDQNAN?$AA@ 10023fa8     libucrt:cfout.obj
 0002:00004fb0       ??_C@_06PGGFOGJG@1?$CDSNAN?$AA@ 10023fb0     libucrt:cfout.obj
 0002:00004fb8       ??_C@_05PHHOCPM@1?$CDIND?$AA@ 10023fb8     libucrt:cfout.obj
 0002:00005018       ??_C@_1BA@BALFACEM@?$AAC?$AAO?$AAN?$AAO?$AAU?$AAT?$AA$?$AA?$AA@ 10024018     libucrt:initcon.obj
 0002:00005130       __infinity                 10024130     libucrt:87tran.obj
 0002:0000513a       __minfinity                1002413a     libucrt:87tran.obj
 0002:00005144       __logemax                  10024144     libucrt:87tran.obj
 0002:0000516a       __OP_EXPjmptab             1002416a     libucrt:87tran.obj
 0002:00005190       __indefinite               10024190     libucrt:87disp.obj
 0002:0000519a       __piby2                    1002419a     libucrt:87disp.obj
 0002:000051a4       __piby4                    100241a4     libucrt:87disp.obj
 0002:000051d8       __DEFAULT_CW_in_mem        100241d8     libucrt:common.obj
 0002:000051da       __pi_by_2_to_61            100241da     libucrt:common.obj
 0002:00005214       ??_C@_03MGHMBJCF@log?$AA@  10024214     libucrt:libm_error.obj
 0002:00005218       ??_C@_05HGHHAHAP@log10?$AA@ 10024218     libucrt:libm_error.obj
 0002:00005220       ??_C@_03KHJOGHMM@exp?$AA@  10024220     libucrt:libm_error.obj
 0002:00005224       ??_C@_03JGHBODFD@pow?$AA@  10024224     libucrt:libm_error.obj
 0002:00005228       ??_C@_04FIHNOPOL@asin?$AA@ 10024228     libucrt:libm_error.obj
 0002:00005230       ??_C@_04PDIFKINK@acos?$AA@ 10024230     libucrt:libm_error.obj
 0002:00005238       ??_C@_04EIAKFFMI@sqrt?$AA@ 10024238     libucrt:libm_error.obj
 0002:00005240       __real@3ff0000000000000    10024240     libucrt:libm_error.obj
 0002:00005260       ___acrt_log10_table_t      10024260     libucrt:log10_tables.obj
 0002:00005670       ___acrt_log10_table_cb     10024670     libucrt:log10_tables.obj
 0002:00005a80       __real@3fe0000000000000    10024a80     libucrt:powhlp.obj
 0002:00005a88       ??_C@_04FJHINJAO@tanh?$AA@ 10024a88     libucrt:fpexcept.obj
 0002:00005a90       ??_C@_04MLLJIGOK@atan?$AA@ 10024a90     libucrt:fpexcept.obj
 0002:00005a98       ??_C@_05KNGEOGJB@atan2?$AA@ 10024a98     libucrt:fpexcept.obj
 0002:00005aa0       ??_C@_03BLEJJJBH@sin?$AA@  10024aa0     libucrt:fpexcept.obj
 0002:00005aa4       ??_C@_03LALBNOCG@cos?$AA@  10024aa4     libucrt:fpexcept.obj
 0002:00005aa8       ??_C@_03IIINPABG@tan?$AA@  10024aa8     libucrt:fpexcept.obj
 0002:00005aac       ??_C@_04GFPJNGEK@ceil?$AA@ 10024aac     libucrt:fpexcept.obj
 0002:00005ab4       ??_C@_05PBJFFIGL@floor?$AA@ 10024ab4     libucrt:fpexcept.obj
 0002:00005abc       ??_C@_04ODHECPBC@fabs?$AA@ 10024abc     libucrt:fpexcept.obj
 0002:00005ac4       ??_C@_04EHEDPDJG@modf?$AA@ 10024ac4     libucrt:fpexcept.obj
 0002:00005acc       ??_C@_05CEJMAHNP@ldexp?$AA@ 10024acc     libucrt:fpexcept.obj
 0002:00005ad4       ??_C@_05KBKMEMPO@_cabs?$AA@ 10024ad4     libucrt:fpexcept.obj
 0002:00005adc       ??_C@_06MEIMCGCF@_hypot?$AA@ 10024adc     libucrt:fpexcept.obj
 0002:00005ae4       ??_C@_04KEPJIHGP@fmod?$AA@ 10024ae4     libucrt:fpexcept.obj
 0002:00005aec       ??_C@_05GKKHEGJL@frexp?$AA@ 10024aec     libucrt:fpexcept.obj
 0002:00005af4       ??_C@_03MJLDFKDL@_y0?$AA@  10024af4     libucrt:fpexcept.obj
 0002:00005af8       ??_C@_03NAKIGLHK@_y1?$AA@  10024af8     libucrt:fpexcept.obj
 0002:00005afc       ??_C@_03ONILCKOB@_yn?$AA@  10024afc     libucrt:fpexcept.obj
 0002:00005b00       ??_C@_05JGDBENOH@_logb?$AA@ 10024b00     libucrt:fpexcept.obj
 0002:00005b08       ??_C@_0L@KDOEJCKC@_nextafter?$AA@ 10024b08     libucrt:fpexcept.obj
 0002:00005c00       ??_C@_04COOMCNPB@sinh?$AA@ 10024c00     libucrt:fpexcept.obj
 0002:00005c08       ??_C@_04HPJJNFIM@cosh?$AA@ 10024c08     libucrt:fpexcept.obj
 0002:00005c10       __d_inf                    10024c10     libucrt:util.obj
 0002:00005c18       __d_max                    10024c18     libucrt:util.obj
 0002:00005c20       __d_mzero                  10024c20     libucrt:util.obj
 0002:00005c28       ??_C@_02LMMGGCAJ@?3?5?$AA@ 10024c28     database.obj
 0002:00005c2c       ??_C@_1DG@OKCGPKIB@?$AAp?$AAe?$AAr?$AAs?$AAi?$AAs?$AAt?$AAe?$AAn?$AAt?$AA?$CI?$AA?$CJ?$AA?4?$AAI?$AAs?$AAN?$AAe?$AAa?$AAr?$AAD?$AAe?$AAa?$AAt?$AAh?$AA?$CI?$AA?$CJ?$AA?$AA@ 10024c2c     database.obj
 0002:00005c64       ??_C@_1CO@EGNPJLKI@?$AAp?$AAe?$AAr?$AAs?$AAi?$AAs?$AAt?$AAe?$AAn?$AAt?$AA?$CI?$AA?$CJ?$AA?4?$AAI?$AAs?$AAE?$AAm?$AAp?$AAt?$AAy?$AA?$CI?$AA?$CJ?$AA?$AA@ 10024c64     database.obj
 0002:00005c94       ??_C@_1DA@FBGAEOIO@?$AA?$CB?$AAp?$AAe?$AAr?$AAs?$AAi?$AAs?$AAt?$AAe?$AAn?$AAt?$AA?$CI?$AA?$CJ?$AA?4?$AAI?$AAs?$AAE?$AAm?$AAp?$AAt?$AAy?$AA?$CI?$AA?$CJ?$AA?$AA@ 10024c94     database.obj
 0002:00005cc4       ??_C@_1CO@JCKLEFMA@?$AA?$CB?$AAp?$AAe?$AAr?$AAs?$AAi?$AAs?$AAt?$AAe?$AAn?$AAt?$AA?$CI?$AA?$CJ?$AA?4?$AAI?$AAs?$AAW?$AAe?$AAa?$AAk?$AA?$CI?$AA?$CJ?$AA?$AA@ 10024cc4     database.obj
 0002:00005cf4       ??_C@_1BE@GMLLOIPJ@?$AAr?$AAe?$AAf?$AAs?$AA_?$AA?5?$AA?$DO?$AA?5?$AA0?$AA?$AA@ 10024cf4     database.obj
 0002:00005d08       ??_C@_1CC@GBFLAAPF@?$AAw?$AAr?$AAa?$AAp?$AA?9?$AA?$DO?$AAr?$AAe?$AAf?$AAs?$AA_?$AA?5?$AA?$DN?$AA?$DN?$AA?5?$AA0?$AA?$AA@ 10024d08     database.obj
 0002:00005d2c       ??_C@_0BA@JFNIOLAK@string?5too?5long?$AA@ 10024d2c     database.obj
 0002:00005d40       ??_C@_1JO@JAIBCODM@?$AAe?$AA?3?$AA?2?$AAr?$AAe?$AAs?$AAe?$AAa?$AAr?$AAc?$AAh?$AA?2?$AAg?$AAi?$AAt?$AA?2?$AAc?$AAh?$AAa?$AAt?$AA_?$AAd?$AAe?$AAs?$AAk?$AAt?$AAo?$AAp?$AA?2?$AAa?$AAd?$AAd@ 10024d40     database.obj
 0002:00005de0       ??_C@_1BO@OPFMAOCA@?$AAl?$AAe?$AAn?$AA?5?$AA?$DM?$AA?$DN?$AA?5?$AAI?$AAN?$AAT?$AA_?$AAM?$AAA?$AAX?$AA?$AA@ 10024de0     database.obj
 0002:00005e00       ??_C@_1BE@CKDJNAPC@?$AAs?$AAt?$AAr?$AA_?$AA?5?$AA?$CB?$AA?$DN?$AA?5?$AA0?$AA?$AA@ 10024e00     database.obj
 0002:00005e18       ??_C@_1IO@PCGFNNIB@?$AAe?$AA?3?$AA?2?$AAr?$AAe?$AAs?$AAe?$AAa?$AAr?$AAc?$AAh?$AA?2?$AAg?$AAi?$AAt?$AA?2?$AAc?$AAh?$AAa?$AAt?$AA_?$AAd?$AAe?$AAs?$AAk?$AAt?$AAo?$AAp?$AA?2?$AAn?$AAo?$AAd@ 10024e18     database.obj
 0002:00005ea8       ??_C@_1EC@MGGLMBLC@?$AAo?$AAb?$AAj?$AAe?$AAc?$AAt?$AA?9?$AA?$DO?$AAI?$AAn?$AAt?$AAe?$AAr?$AAn?$AAa?$AAl?$AAF?$AAi?$AAe?$AAl?$AAd?$AAC?$AAo?$AAu?$AAn?$AAt?$AA?$CI?$AA?$CJ?$AA?5?$AA?$DO?$AA?5?$AA0@ 10024ea8     database.obj
 0002:00005eec       ??_C@_1DI@ELDBKNAK@?$AAw?$AAr?$AAa?$AAp?$AA?9?$AA?$DO?$AAh?$AAa?$AAn?$AAd?$AAl?$AAe?$AA_?$AA?4?$AAI?$AAs?$AAN?$AAe?$AAa?$AAr?$AAD?$AAe?$AAa?$AAt?$AAh?$AA?$CI?$AA?$CJ?$AA?$AA@ 10024eec     database.obj
 0002:00005f24       ??_C@_06BHEBDDGP@123456?$AA@ 10024f24     database.obj
 0002:00005f2c       ??_C@_08HDBDMMBI@Database?$AA@ 10024f2c     database.obj
 0002:00005f38       ??_C@_05LBOHBHFK@close?$AA@ 10024f38     database.obj
 0002:00005f40       ??_C@_04MGEIEJAD@exec?$AA@ 10024f40     database.obj
 0002:00005f48       ??_C@_04PNOAOIAG@wait?$AA@ 10024f48     database.obj
 0002:00005f50       ??_C@_0O@ECDOIFAD@loadExtension?$AA@ 10024f50     database.obj
 0002:00005f60       ??_C@_09HPAMHOHM@serialize?$AA@ 10024f60     database.obj
 0002:00005f6c       ??_C@_0M@EAPFGMPD@parallelize?$AA@ 10024f6c     database.obj
 0002:00005f78       ??_C@_09JPIPCLGE@configure?$AA@ 10024f78     database.obj
 0002:00005f84       ??_C@_09NCAJIFEE@interrupt?$AA@ 10024f84     database.obj
 0002:00005f90       ??_C@_04PMOCAHAA@open?$AA@ 10024f90     database.obj
 0002:00005f98       ??_C@_0BK@NFNEAING@Database?5handle?5is?5closed?$AA@ 10024f98     database.obj
 0002:00005fb4       ??_C@_05PEAMIKEP@errno?$AA@ 10024fb4     database.obj
 0002:00005fbc       ??_C@_04NDFOBODE@code?$AA@ 10024fbc     database.obj
 0002:00005fc4       ??_C@_05KKCIMGE@error?$AA@ 10024fc4     database.obj
 0002:00005fcc       ??_C@_04KNBGJDFM@emit?$AA@ 10024fcc     database.obj
 0002:00005fd4       ??_C@_0BD@DGAFCBMK@Database?5is?5closed?$AA@ 10024fd4     database.obj
 0002:00005fe8       ??_C@_0DE@ECFIFLMI@Use?5the?5new?5operator?5to?5create?5n@ 10024fe8     database.obj
 0002:0000601c       ??_C@_0BM@MEFJKJPM@Argument?50?5must?5be?5a?5string?$AA@ 1002501c     database.obj
 0002:00006038       ??_C@_08BABJIOEM@filename?$AA@ 10025038     database.obj
 0002:00006044       ??_C@_04GMGOKAFF@mode?$AA@ 10025044     database.obj
 0002:0000604c       ??_C@_1CA@CJBODEKB@?$AAs?$AAr?$AAc?$AA?2?$AAd?$AAa?$AAt?$AAa?$AAb?$AAa?$AAs?$AAe?$AA?4?$AAc?$AAc?$AA?$AA@ 1002504c     database.obj
 0002:0000606c       ??_C@_1BI@MDCHJGIP@?$AAs?$AAt?$AAa?$AAt?$AAu?$AAs?$AA?5?$AA?$DN?$AA?$DN?$AA?5?$AA0?$AA?$AA@ 1002506c     database.obj
 0002:00006084       ??_C@_0BO@EOGBJBPM@Argument?50?5must?5be?5a?5function?$AA@ 10025084     database.obj
 0002:000060a4       ??_C@_1CE@GEJGLKIE@?$AAb?$AAa?$AAt?$AAo?$AAn?$AA?9?$AA?$DO?$AAd?$AAb?$AA?9?$AA?$DO?$AAl?$AAo?$AAc?$AAk?$AAe?$AAd?$AA?$AA@ 100250a4     database.obj
 0002:000060c8       ??_C@_1CA@CNOGPPMM@?$AAb?$AAa?$AAt?$AAo?$AAn?$AA?9?$AA?$DO?$AAd?$AAb?$AA?9?$AA?$DO?$AAo?$AAp?$AAe?$AAn?$AA?$AA@ 100250c8     database.obj
 0002:000060e8       ??_C@_1CG@OPFFOIID@?$AAb?$AAa?$AAt?$AAo?$AAn?$AA?9?$AA?$DO?$AAd?$AAb?$AA?9?$AA?$DO?$AA_?$AAh?$AAa?$AAn?$AAd?$AAl?$AAe?$AA?$AA@ 100250e8     database.obj
 0002:00006110       ??_C@_1DA@COHKGEFA@?$AAb?$AAa?$AAt?$AAo?$AAn?$AA?9?$AA?$DO?$AAd?$AAb?$AA?9?$AA?$DO?$AAp?$AAe?$AAn?$AAd?$AAi?$AAn?$AAg?$AA?5?$AA?$DN?$AA?$DN?$AA?5?$AA0?$AA?$AA@ 10025110     database.obj
 0002:00006140       ??_C@_0BE@OBLCFBC@Expected?52arguments?$AA@ 10025140     database.obj
 0002:00006154       ??_C@_05IMBNNINJ@trace?$AA@ 10025154     database.obj
 0002:0000615c       ??_C@_07LNMDFKEJ@profile?$AA@ 1002515c     database.obj
 0002:00006164       ??_C@_0M@NOJOJPAM@busyTimeout?$AA@ 10025164     database.obj
 0002:00006170       ??_C@_0BJ@MLJHEPAD@Value?5must?5be?5an?5integer?$AA@ 10025170     database.obj
 0002:0000618c       ??_C@_0CF@LBEBBOPJ@?5is?5not?5a?5valid?5configuration?5op@ 1002518c     database.obj
 0002:000061b4       ??_C@_0BF@MNNGNMMN@Database?5is?5not?5open?$AA@ 100251b4     database.obj
 0002:000061cc       ??_C@_0BE@BGHKOJIB@Database?5is?5closing?$AA@ 100251cc     database.obj
 0002:000061e0       ??_C@_0BO@NBLLBCGC@Argument?51?5must?5be?5a?5function?$AA@ 100251e0     database.obj
 0002:00006200       ??_C@_1GG@GIKGDKHG@?$AAe?$AA?3?$AA?2?$AAr?$AAe?$AAs?$AAe?$AAa?$AAr?$AAc?$AAh?$AA?2?$AAg?$AAi?$AAt?$AA?2?$AAc?$AAh?$AAa?$AAt?$AA_?$AAd?$AAe?$AAs?$AAk?$AAt?$AAo?$AAp?$AA?2?$AAa?$AAd?$AAd@ 10025200     database.obj
 0002:00006268       ??_C@_1BO@IDEJILBK@?$AAh?$AAa?$AAn?$AAd?$AAl?$AAe?$AA?5?$AA?$CB?$AA?$DN?$AA?5?$AAN?$AAU?$AAL?$AAL?$AA?$AA@ 10025268     database.obj
 0002:00006288       ??_C@_1CK@OKNEGFMD@?$AAh?$AAa?$AAn?$AAd?$AAl?$AAe?$AA?9?$AA?$DO?$AAd?$AAa?$AAt?$AAa?$AA?5?$AA?$CB?$AA?$DN?$AA?5?$AAN?$AAU?$AAL?$AAL?$AA?$AA@ 10025288     database.obj
 0002:000062b4       ??_C@_0BC@KBDMBKEH@deque?$DMT?$DO?5too?5long?$AA@ 100252b4     database.obj
 0002:000062c8       ??_C@_0BI@CFPLBAOH@invalid?5string?5position?$AA@ 100252c8     database.obj
 0002:000062e0       ??_C@_0BD@OLBABOEK@vector?$DMT?$DO?5too?5long?$AA@ 100252e0     database.obj
 0002:000062f4       ??_C@_1CE@LNAGEONJ@?$AA?$CB?$AAo?$AAb?$AAj?$AAe?$AAc?$AAt?$AA?4?$AAI?$AAs?$AAE?$AAm?$AAp?$AAt?$AAy?$AA?$CI?$AA?$CJ?$AA?$AA@ 100252f4     database.obj
 0002:00006318       ??_7LoadExtensionBaton@Database@node_sqlite3@@6B@ 10025318     database.obj
 0002:0000631c       ??_7Baton@Database@node_sqlite3@@6B@ 1002531c     database.obj
 0002:00006320       ??_7Database@node_sqlite3@@6B@ 10025320     database.obj
 0002:0000632c       ??_7OpenBaton@Database@node_sqlite3@@6B@ 1002532c     database.obj
 0002:00006330       ??_7ExecBaton@Database@node_sqlite3@@6B@ 10025330     database.obj
 0002:00006334       ??_7ObjectWrap@Nan@@6B@    10025334     database.obj
 0002:00006340       ??_C@_00CNPNBAHC@?$AA@     10025340     node_sqlite3.obj
 0002:00006344       ??_C@_0O@KMPPDMGD@OPEN_READONLY?$AA@ 10025344     node_sqlite3.obj
 0002:00006354       ??_C@_0P@CMIKONIK@OPEN_READWRITE?$AA@ 10025354     node_sqlite3.obj
 0002:00006364       ??_C@_0M@DNADCKHL@OPEN_CREATE?$AA@ 10025364     node_sqlite3.obj
 0002:00006370       ??_C@_06PPPNKIOD@3?411?40?$AA@ 10025370     node_sqlite3.obj
 0002:00006378       ??_C@_07NCHCCDCP@VERSION?$AA@ 10025378     node_sqlite3.obj
 0002:00006380       ??_C@_0DN@CJODPLNM@2016?902?915?517?329?324?53d862f207e3a@ 10025380     node_sqlite3.obj
 0002:000063c0       ??_C@_09IHBOOPGJ@SOURCE_ID?$AA@ 100253c0     node_sqlite3.obj
 0002:000063cc       ??_C@_0P@BMFBPGOJ@VERSION_NUMBER?$AA@ 100253cc     node_sqlite3.obj
 0002:000063dc       ??_C@_02GIPFHKNO@OK?$AA@   100253dc     node_sqlite3.obj
 0002:000063e0       ??_C@_05MBDEGLCK@ERROR?$AA@ 100253e0     node_sqlite3.obj
 0002:000063e8       ??_C@_08MLFDIMPC@INTERNAL?$AA@ 100253e8     node_sqlite3.obj
 0002:000063f4       ??_C@_04IHOLKELA@PERM?$AA@ 100253f4     node_sqlite3.obj
 0002:000063fc       ??_C@_05NKJCKGFJ@ABORT?$AA@ 100253fc     node_sqlite3.obj
 0002:00006404       ??_C@_04OCLOIKKP@BUSY?$AA@ 10025404     node_sqlite3.obj
 0002:0000640c       ??_C@_06KODELPLK@LOCKED?$AA@ 1002540c     node_sqlite3.obj
 0002:00006414       ??_C@_05PLDEAEFL@NOMEM?$AA@ 10025414     node_sqlite3.obj
 0002:0000641c       ??_C@_08OBALAKLA@READONLY?$AA@ 1002541c     node_sqlite3.obj
 0002:00006428       ??_C@_09OCPILILD@INTERRUPT?$AA@ 10025428     node_sqlite3.obj
 0002:00006434       ??_C@_05PHLGKHGH@IOERR?$AA@ 10025434     node_sqlite3.obj
 0002:0000643c       ??_C@_07MCKBJMCP@CORRUPT?$AA@ 1002543c     node_sqlite3.obj
 0002:00006444       ??_C@_08DJOBNNJD@NOTFOUND?$AA@ 10025444     node_sqlite3.obj
 0002:00006450       ??_C@_04DHPBCODG@FULL?$AA@ 10025450     node_sqlite3.obj
 0002:00006458       ??_C@_08JBPALPLP@CANTOPEN?$AA@ 10025458     node_sqlite3.obj
 0002:00006464       ??_C@_08CNPDODFC@PROTOCOL?$AA@ 10025464     node_sqlite3.obj
 0002:00006470       ??_C@_05HKAKDGKI@EMPTY?$AA@ 10025470     node_sqlite3.obj
 0002:00006478       ??_C@_06KMALHADJ@SCHEMA?$AA@ 10025478     node_sqlite3.obj
 0002:00006480       ??_C@_06GAMKGFDP@TOOBIG?$AA@ 10025480     node_sqlite3.obj
 0002:00006488       ??_C@_0L@MIBKHLOM@CONSTRAINT?$AA@ 10025488     node_sqlite3.obj
 0002:00006494       ??_C@_08MKICCDMH@MISMATCH?$AA@ 10025494     node_sqlite3.obj
 0002:000064a0       ??_C@_06PIMAOLO@MISUSE?$AA@ 100254a0     node_sqlite3.obj
 0002:000064a8       ??_C@_05JFIPOCLI@NOLFS?$AA@ 100254a8     node_sqlite3.obj
 0002:000064b0       ??_C@_04PDIIMFOK@AUTH?$AA@ 100254b0     node_sqlite3.obj
 0002:000064b8       ??_C@_06DPGELLJH@FORMAT?$AA@ 100254b8     node_sqlite3.obj
 0002:000064c0       ??_C@_05OJPIIJFC@RANGE?$AA@ 100254c0     node_sqlite3.obj
 0002:000064c8       ??_C@_06NDEOMINE@NOTADB?$AA@ 100254c8     node_sqlite3.obj
 0002:000064d0       ??_C@_09HIPHMGOA@SQLITE_OK?$AA@ 100254d0     node_sqlite3.obj
 0002:000064dc       ??_C@_0N@EJLPCDDI@SQLITE_ERROR?$AA@ 100254dc     node_sqlite3.obj
 0002:000064ec       ??_C@_0BA@JGDLGEMB@SQLITE_INTERNAL?$AA@ 100254ec     node_sqlite3.obj
 0002:000064fc       ??_C@_0M@EPJFAGI@SQLITE_PERM?$AA@ 100254fc     node_sqlite3.obj
 0002:00006508       ??_C@_0N@FCBJOOEL@SQLITE_ABORT?$AA@ 10025508     node_sqlite3.obj
 0002:00006518       ??_C@_0M@GBKMHOHH@SQLITE_BUSY?$AA@ 10025518     node_sqlite3.obj
 0002:00006524       ??_C@_0O@FNAFEFLK@SQLITE_LOCKED?$AA@ 10025524     node_sqlite3.obj
 0002:00006534       ??_C@_0N@HDLPEMEJ@SQLITE_NOMEM?$AA@ 10025534     node_sqlite3.obj
 0002:00006544       ??_C@_0BA@LMGDOCID@SQLITE_READONLY?$AA@ 10025544     node_sqlite3.obj
 0002:00006554       ??_C@_0BB@FNHFLBEN@SQLITE_INTERRUPT?$AA@ 10025554     node_sqlite3.obj
 0002:00006568       ??_C@_0N@HPDNOPHF@SQLITE_IOERR?$AA@ 10025568     node_sqlite3.obj
 0002:00006578       ??_C@_0P@MCFCKNNF@SQLITE_CORRUPT?$AA@ 10025578     node_sqlite3.obj
 0002:00006588       ??_C@_0BA@GEIJDFKA@SQLITE_NOTFOUND?$AA@ 10025588     node_sqlite3.obj
 0002:00006598       ??_C@_0M@LEODNKOO@SQLITE_FULL?$AA@ 10025598     node_sqlite3.obj
 0002:000065a4       ??_C@_0BA@MMJIFHIM@SQLITE_CANTOPEN?$AA@ 100255a4     node_sqlite3.obj
 0002:000065b4       ??_C@_0BA@HAJLALGB@SQLITE_PROTOCOL?$AA@ 100255b4     node_sqlite3.obj
 0002:000065c4       ??_C@_0N@PCIBHOLK@SQLITE_EMPTY?$AA@ 100255c4     node_sqlite3.obj
 0002:000065d4       ??_C@_0O@FPDKIKDJ@SQLITE_SCHEMA?$AA@ 100255d4     node_sqlite3.obj
 0002:000065e4       ??_C@_0O@JDPLJPDP@SQLITE_TOOBIG?$AA@ 100255e4     node_sqlite3.obj
 0002:000065f4       ??_C@_0BC@JCKACJPO@SQLITE_CONSTRAINT?$AA@ 100255f4     node_sqlite3.obj
 0002:00006608       ??_C@_0BA@JHOKMLPE@SQLITE_MISMATCH?$AA@ 10025608     node_sqlite3.obj
 0002:00006618       ??_C@_0O@PMLNPELO@SQLITE_MISUSE?$AA@ 10025618     node_sqlite3.obj
 0002:00006628       ??_C@_0N@BNAEKKKK@SQLITE_NOLFS?$AA@ 10025628     node_sqlite3.obj
 0002:00006638       ??_C@_0M@HAJKDBDC@SQLITE_AUTH?$AA@ 10025638     node_sqlite3.obj
 0002:00006644       ??_C@_0O@MMFFEBJH@SQLITE_FORMAT?$AA@ 10025644     node_sqlite3.obj
 0002:00006654       ??_C@_0N@GBHDMBEA@SQLITE_RANGE?$AA@ 10025654     node_sqlite3.obj
 0002:00006664       ??_C@_0O@CAHPDCNE@SQLITE_NOTADB?$AA@ 10025664     node_sqlite3.obj
 0002:00006674       ??_C@_0L@PAPCPJLD@SQLITE_ROW?$AA@ 10025674     node_sqlite3.obj
 0002:00006680       ??_C@_0M@CDMBFBFC@SQLITE_DONE?$AA@ 10025680     node_sqlite3.obj
 0002:0000668c       ??_C@_07NFANNNEC@UNKNOWN?$AA@ 1002568c     node_sqlite3.obj
 0002:00006694       ??_C@_0BE@GAMFCLBO@src?2node_sqlite3?4cc?$AA@ 10025694     node_sqlite3.obj
 0002:000066a8       ??_C@_0N@PJIOPEAC@node_sqlite3?$AA@ 100256a8     node_sqlite3.obj
 0002:000066b8       ??_C@_1FM@LOELJOFK@?$AAs?$AAi?$AAz?$AAe?$AA?5?$AA?$DM?$AA?$DN?$AA?5?$AAi?$AAm?$AAp?$AA?3?$AA?3?$AAk?$AAM?$AAa?$AAx?$AAL?$AAe?$AAn?$AAg?$AAt?$AAh?$AA?5?$AA?$CG?$AA?$CG?$AA?5?$AA?$CC?$AAt?$AAo?$AAo?$AA?5@ 100256b8     statement.obj
 0002:00006714       ??_C@_09NLAGBMPK@Statement?$AA@ 10025714     statement.obj
 0002:00006720       ??_C@_04NPNJNMMP@bind?$AA@ 10025720     statement.obj
 0002:00006728       ??_C@_03HNAFFKGA@get?$AA@  10025728     statement.obj
 0002:0000672c       ??_C@_03LGMJKEGG@run?$AA@  1002572c     statement.obj
 0002:00006730       ??_C@_03NFKEKGGK@all?$AA@  10025730     statement.obj
 0002:00006734       ??_C@_04MCAPEGP@each?$AA@  10025734     statement.obj
 0002:0000673c       ??_C@_05CFMALAOA@reset?$AA@ 1002573c     statement.obj
 0002:00006744       ??_C@_08LKAKBDAJ@finalize?$AA@ 10025744     statement.obj
 0002:00006750       ??_C@_0DF@MGNMIKMK@Use?5the?5new?5operator?5to?5create?5n@ 10025750     statement.obj
 0002:00006788       ??_C@_0BJ@IBOOJLKP@Database?5object?5expected?$AA@ 10025788     statement.obj
 0002:000067a4       ??_C@_0BD@BEFANDIE@SQL?5query?5expected?$AA@ 100257a4     statement.obj
 0002:000067b8       ??_C@_0BC@NAOEMKIM@Callback?5expected?$AA@ 100257b8     statement.obj
 0002:000067cc       ??_C@_03DLEKAJFN@sql?$AA@  100257cc     statement.obj
 0002:000067d0       ??_C@_1CC@MGJAKBIL@?$AAs?$AAr?$AAc?$AA?2?$AAs?$AAt?$AAa?$AAt?$AAe?$AAm?$AAe?$AAn?$AAt?$AA?4?$AAc?$AAc?$AA?$AA@ 100257d0     statement.obj
 0002:000067f4       ??_C@_1BK@GEPPMBBK@?$AAs?$AAt?$AAm?$AAt?$AA?9?$AA?$DO?$AAl?$AAo?$AAc?$AAk?$AAe?$AAd?$AA?$AA@ 100257f4     statement.obj
 0002:00006810       ??_C@_1CE@PJCECAEI@?$AAs?$AAt?$AAm?$AAt?$AA?9?$AA?$DO?$AAd?$AAb?$AA?9?$AA?$DO?$AAp?$AAe?$AAn?$AAd?$AAi?$AAn?$AAg?$AA?$AA@ 10025810     statement.obj
 0002:00006834       ??_C@_0BL@OMJMIDO@Data?5type?5is?5not?5supported?$AA@ 10025834     statement.obj
 0002:00006850       ??_C@_1M@HECHAGJM@?$AAb?$AAa?$AAt?$AAo?$AAn?$AA?$AA@ 10025850     statement.obj
 0002:0000685c       ??_C@_1BI@GDHLOIIJ@?$AAb?$AAa?$AAt?$AAo?$AAn?$AA?9?$AA?$DO?$AAs?$AAt?$AAm?$AAt?$AA?$AA@ 1002585c     statement.obj
 0002:00006874       ??_C@_1CK@GLLDDHI@?$AA?$CB?$AAb?$AAa?$AAt?$AAo?$AAn?$AA?9?$AA?$DO?$AAs?$AAt?$AAm?$AAt?$AA?9?$AA?$DO?$AAl?$AAo?$AAc?$AAk?$AAe?$AAd?$AA?$AA@ 10025874     statement.obj
 0002:000068a0       ??_C@_1DA@PEKALOGO@?$AA?$CB?$AAb?$AAa?$AAt?$AAo?$AAn?$AA?9?$AA?$DO?$AAs?$AAt?$AAm?$AAt?$AA?9?$AA?$DO?$AAf?$AAi?$AAn?$AAa?$AAl?$AAi?$AAz?$AAe?$AAd?$AA?$AA@ 100258a0     statement.obj
 0002:000068d0       ??_C@_1CM@GHJBIPEL@?$AAb?$AAa?$AAt?$AAo?$AAn?$AA?9?$AA?$DO?$AAs?$AAt?$AAm?$AAt?$AA?9?$AA?$DO?$AAp?$AAr?$AAe?$AAp?$AAa?$AAr?$AAe?$AAd?$AA?$AA@ 100258d0     statement.obj
 0002:000068fc       ??_C@_06FMFMELHF@lastID?$AA@ 100258fc     statement.obj
 0002:00006904       ??_C@_07HFLFHMNL@changes?$AA@ 10025904     statement.obj
 0002:0000690c       ??_C@_1M@HLGKFCJM@?$AAf?$AAa?$AAl?$AAs?$AAe?$AA?$AA@ 1002590c     statement.obj
 0002:00006918       ??_C@_1BG@KFNIGNMM@?$AA?$CB?$AAf?$AAi?$AAn?$AAa?$AAl?$AAi?$AAz?$AAe?$AAd?$AA?$AA@ 10025918     statement.obj
 0002:00006930       ??_C@_0BP@OGPJJGIH@Statement?5is?5already?5finalized?$AA@ 10025930     statement.obj
 0002:00006950       ??_C@_1CE@NFJLPDCM@?$AAs?$AAt?$AAm?$AAt?$AA?9?$AA?$DO?$AAs?$AAt?$AAa?$AAt?$AAu?$AAs?$AA?5?$AA?$CB?$AA?$DN?$AA?5?$AA0?$AA?$AA@ 10025950     statement.obj
 0002:00006974       ??_7EachBaton@Statement@node_sqlite3@@6B@ 10025974     statement.obj
 0002:00006978       ??_7RowBaton@Statement@node_sqlite3@@6B@ 10025978     statement.obj
 0002:00006978       ??_7RowsBaton@Statement@node_sqlite3@@6B@ 10025978     statement.obj
 0002:0000697c       ??_7Baton@Statement@node_sqlite3@@6B@ 1002597c     statement.obj
 0002:00006980       ??_7Statement@node_sqlite3@@6B@ 10025980     statement.obj
 0002:0000698c       ??_7PrepareBaton@Statement@node_sqlite3@@6B@ 1002598c     statement.obj
 0002:00006990       ??_7RunBaton@Statement@node_sqlite3@@6B@ 10025990     statement.obj
 0002:00006998       __real@412e848000000000    10025998     database.obj
 0002:00006a88       __load_config_used         10025a88     LIBCMT:loadcfg.obj
 0002:00006ae4       ??_R4exception@std@@6B@    10025ae4     libcpmt:xthrow.obj
 0002:00006af8       ??_R3exception@std@@8      10025af8     libcpmt:xthrow.obj
 0002:00006b08       ??_R2exception@std@@8      10025b08     libcpmt:xthrow.obj
 0002:00006b10       ??_R1A@?0A@EA@exception@std@@8 10025b10     libcpmt:xthrow.obj
 0002:00006b2c       ??_R4bad_alloc@std@@6B@    10025b2c     libcpmt:xthrow.obj
 0002:00006b40       ??_R3bad_alloc@std@@8      10025b40     libcpmt:xthrow.obj
 0002:00006b50       ??_R2bad_alloc@std@@8      10025b50     libcpmt:xthrow.obj
 0002:00006b5c       ??_R1A@?0A@EA@bad_alloc@std@@8 10025b5c     libcpmt:xthrow.obj
 0002:00006b78       ??_R4logic_error@std@@6B@  10025b78     libcpmt:xthrow.obj
 0002:00006b8c       ??_R3logic_error@std@@8    10025b8c     libcpmt:xthrow.obj
 0002:00006b9c       ??_R2logic_error@std@@8    10025b9c     libcpmt:xthrow.obj
 0002:00006ba8       ??_R1A@?0A@EA@logic_error@std@@8 10025ba8     libcpmt:xthrow.obj
 0002:00006bc4       ??_R4length_error@std@@6B@ 10025bc4     libcpmt:xthrow.obj
 0002:00006bd8       ??_R3length_error@std@@8   10025bd8     libcpmt:xthrow.obj
 0002:00006be8       ??_R2length_error@std@@8   10025be8     libcpmt:xthrow.obj
 0002:00006bf8       ??_R1A@?0A@EA@length_error@std@@8 10025bf8     libcpmt:xthrow.obj
 0002:00006c14       ??_R4out_of_range@std@@6B@ 10025c14     libcpmt:xthrow.obj
 0002:00006c28       ??_R3out_of_range@std@@8   10025c28     libcpmt:xthrow.obj
 0002:00006c38       ??_R2out_of_range@std@@8   10025c38     libcpmt:xthrow.obj
 0002:00006c48       ??_R1A@?0A@EA@out_of_range@std@@8 10025c48     libcpmt:xthrow.obj
 0002:00006c64       ??_R4type_info@@6B@        10025c64     LIBCMT:std_type_info_static.obj
 0002:00006c78       ??_R3type_info@@8          10025c78     LIBCMT:std_type_info_static.obj
 0002:00006c88       ??_R2type_info@@8          10025c88     LIBCMT:std_type_info_static.obj
 0002:00006c90       ??_R1A@?0A@EA@type_info@@8 10025c90     LIBCMT:std_type_info_static.obj
 0002:00006cac       ??_R4bad_array_new_length@std@@6B@ 10025cac     LIBCMT:throw_bad_alloc.obj
 0002:00006cc0       ??_R3bad_array_new_length@std@@8 10025cc0     LIBCMT:throw_bad_alloc.obj
 0002:00006cd0       ??_R2bad_array_new_length@std@@8 10025cd0     LIBCMT:throw_bad_alloc.obj
 0002:00006ce0       ??_R1A@?0A@EA@bad_array_new_length@std@@8 10025ce0     LIBCMT:throw_bad_alloc.obj
 0002:00006d00       ___safe_se_handler_table   10025d00     <linker-defined>
 0002:00007064       ___rtc_iaa                 10026064     LIBCMT:_initsect_.obj
 0002:00007068       ___rtc_izz                 10026068     LIBCMT:_initsect_.obj
 0002:0000706c       ___rtc_taa                 1002606c     LIBCMT:_initsect_.obj
 0002:00007070       ___rtc_tzz                 10026070     LIBCMT:_initsect_.obj
 0002:00007078       __TI2?AVbad_alloc@std@@    10026078     libcpmt:xthrow.obj
 0002:00007088       __CTA2?AVbad_alloc@std@@   10026088     libcpmt:xthrow.obj
 0002:00007094       __CT??_R0?AVbad_alloc@std@@@8??0bad_alloc@std@@QAE@ABV01@@Z12 10026094     libcpmt:xthrow.obj
 0002:000070b0       __CT??_R0?AVexception@std@@@8??0exception@std@@QAE@ABV01@@Z12 100260b0     libcpmt:xthrow.obj
 0002:000070cc       __CT??_R0?AVlogic_error@std@@@8??0logic_error@std@@QAE@ABV01@@Z12 100260cc     libcpmt:xthrow.obj
 0002:000070e8       __TI3?AVlength_error@std@@ 100260e8     libcpmt:xthrow.obj
 0002:000070f8       __CTA3?AVlength_error@std@@ 100260f8     libcpmt:xthrow.obj
 0002:00007108       __CT??_R0?AVlength_error@std@@@8??0length_error@std@@QAE@ABV01@@Z12 10026108     libcpmt:xthrow.obj
 0002:00007124       __TI3?AVout_of_range@std@@ 10026124     libcpmt:xthrow.obj
 0002:00007134       __CTA3?AVout_of_range@std@@ 10026134     libcpmt:xthrow.obj
 0002:00007144       __CT??_R0?AVout_of_range@std@@@8??0out_of_range@std@@QAE@ABV01@@Z12 10026144     libcpmt:xthrow.obj
 0002:000071dc       __TI3?AVbad_array_new_length@std@@ 100261dc     LIBCMT:throw_bad_alloc.obj
 0002:000071ec       __CTA3?AVbad_array_new_length@std@@ 100261ec     LIBCMT:throw_bad_alloc.obj
 0002:000071fc       __CT??_R0?AVbad_array_new_length@std@@@8??0bad_array_new_length@std@@QAE@ABV01@@Z12 100261fc     LIBCMT:throw_bad_alloc.obj
 0002:0000760c       __IMPORT_DESCRIPTOR_KERNEL32 1002660c     kernel32:KERNEL32.dll
 0002:00007620       __IMPORT_DESCRIPTOR_node   10026620     iojs:node.dll
 0002:00007634       __IMPORT_DESCRIPTOR_sqlite3 10026634     sqlite3:sqlite3.dll
 0002:00007648       __NULL_IMPORT_DESCRIPTOR   10026648     kernel32:KERNEL32.dll
 0003:00000000       ___scrt_native_dllmain_reason 10029000     LIBCMT:utility.obj
 0003:00000004       ___security_cookie_complement 10029004     LIBCMT:gs_cookie.obj
 0003:00000008       ___security_cookie         10029008     LIBCMT:gs_cookie.obj
 0003:0000000c       ___isa_enabled             1002900c     LIBCMT:_cpu_disp_.obj
 0003:00000020       __NLG_Destination          10029020     libvcruntime:_exsup_.obj
 0003:00000030       ___abort_behavior          10029030     libucrt:abort.obj
 0003:00000040       ___acrt_initial_locale_data 10029040     libucrt:nlsdata.obj
 0003:000000f8       ___acrt_initial_locale_pointers 100290f8     libucrt:nlsdata.obj
 0003:00000100       ___acrt_wide_c_locale_string 10029100     libucrt:nlsdata.obj
 0003:00000108       __iob                      10029108     libucrt:_file.obj
 0003:000002a8       __mbctype                  100292a8     libucrt:mbctype.obj
 0003:000003b0       __mbcasemap                100293b0     libucrt:mbctype.obj
 0003:000004b0       ___acrt_initial_multibyte_data 100294b0     libucrt:mbctype.obj
 0003:000006d0       ___acrt_current_multibyte_data 100296d0     libucrt:mbctype.obj
 0003:000006d8       ___badioinfo               100296d8     libucrt:ioinit.obj
 0003:00000708       __pwctype                  10029708     libucrt:ctype.obj
 0003:0000070c       ___globallocalestatus      1002970c     libucrt:glstatus.obj
 0003:00000710       ___acrt_lconv_static_decimal 10029710     libucrt:localeconv.obj
 0003:00000714       ___acrt_lconv_static_W_decimal 10029714     libucrt:localeconv.obj
 0003:00000718       ___acrt_lconv_c            10029718     libucrt:localeconv.obj
 0003:00000770       ___dcrt_lowio_console_output_handle 10029770     libucrt:initcon.obj
 0003:00000780       __fltused                  10029780     LIBCMT:fltused.obj
 0003:000007c0       ??_R0?AVbad_alloc@std@@@8  100297c0     libcpmt:xthrow.obj
 0003:000007dc       ??_R0?AVexception@std@@@8  100297dc     libcpmt:xthrow.obj
 0003:000007f8       ??_R0?AVlogic_error@std@@@8 100297f8     libcpmt:xthrow.obj
 0003:00000818       ??_R0?AVlength_error@std@@@8 10029818     libcpmt:xthrow.obj
 0003:00000838       ??_R0?AVout_of_range@std@@@8 10029838     libcpmt:xthrow.obj
 0003:00000858       ??_R0?AVtype_info@@@8      10029858     LIBCMT:std_type_info_static.obj
 0003:00000870       ??_R0?AVbad_array_new_length@std@@@8 10029870     LIBCMT:throw_bad_alloc.obj
 0003:00000898       ___scrt_current_native_startup_state 10029898     LIBCMT:utility.obj
 0003:0000089c       ___scrt_native_startup_lock 1002989c     LIBCMT:utility.obj
 0003:00000bdc       ___isa_available           10029bdc     LIBCMT:_cpu_disp_.obj
 0003:00000be0       ___favor                   10029be0     LIBCMT:_cpu_disp_.obj
 0003:00000be4       ___scrt_debugger_hook_flag 10029be4     LIBCMT:utility_desktop.obj
 0003:00000be8       ?__type_info_root_node@@3U__type_info_node@@A 10029be8     LIBCMT:tncleanup.obj
 0003:00000bf0       ?_OptionsStorage@?1??__local_stdio_printf_options@@9@4_KA 10029bf0     LIBCMT:default_local_stdio_options.obj
 0003:00000bf8       ?_OptionsStorage@?1??__local_stdio_scanf_options@@9@4_KA 10029bf8     LIBCMT:default_local_stdio_options.obj
 0003:00000c78       ___pPurecall               10029c78     libvcruntime:purevirt_data.obj
 0003:00000c7c       ?pArgList@UnDecorator@@0PAVReplicator@@A 10029c7c     libvcruntime:undname.obj
 0003:00000c80       ?pZNameList@UnDecorator@@0PAVReplicator@@A 10029c80     libvcruntime:undname.obj
 0003:00000c84       ?pTemplateArgList@UnDecorator@@0PAVReplicator@@A 10029c84     libvcruntime:undname.obj
 0003:00000c88       ?gName@UnDecorator@@0PBDB  10029c88     libvcruntime:undname.obj
 0003:00000c8c       ?name@UnDecorator@@0PBDB   10029c8c     libvcruntime:undname.obj
 0003:00000c90       ?outputString@UnDecorator@@0PADA 10029c90     libvcruntime:undname.obj
 0003:00000c94       ?maxStringLength@UnDecorator@@0HA 10029c94     libvcruntime:undname.obj
 0003:00000c98       ?disableFlags@UnDecorator@@0KA 10029c98     libvcruntime:undname.obj
 0003:00000c9c       ?fExplicitTemplateParams@UnDecorator@@0_NA 10029c9c     libvcruntime:undname.obj
 0003:00000c9d       ?fGetTemplateArgumentList@UnDecorator@@0_NA 10029c9d     libvcruntime:undname.obj
 0003:00000ca0       ?m_pGetParameter@UnDecorator@@0P6APADJ@ZA 10029ca0     libvcruntime:undname.obj
 0003:00000dd8       __environ_table            10029dd8     libucrt:environment_initialization.obj
 0003:00000ddc       __wenviron_table           10029ddc     libucrt:environment_initialization.obj
 0003:00000de0       ___dcrt_initial_wide_environment 10029de0     libucrt:environment_initialization.obj
 0003:00000de4       ___dcrt_initial_narrow_environment 10029de4     libucrt:environment_initialization.obj
 0003:00000de8       ___acrt_atexit_table       10029de8     libucrt:onexit.obj
 0003:00000df4       ___acrt_at_quick_exit_table 10029df4     libucrt:onexit.obj
 0003:00000e00       ___acrt_locale_changed_data 10029e00     libucrt:wsetlocale.obj
 0003:00000e04       ___acrt_current_locale_data 10029e04     libucrt:nlsdata.obj
 0003:00000e10       __nstream                  10029e10     libucrt:_file.obj
 0003:00000e14       ___piob                    10029e14     libucrt:_file.obj
 0003:00000e18       __cflush                   10029e18     libucrt:_file.obj
 0003:00001044       ___mblocalename            1002a044     libucrt:mbctype.obj
 0003:00001048       ___mbcodepage              1002a048     libucrt:mbctype.obj
 0003:0000104c       ___ismbcodepage            1002a04c     libucrt:mbctype.obj
 0003:00001050       ___mbulinfo                1002a050     libucrt:mbctype.obj
 0003:00001064       ___argc                    1002a064     libucrt:argv_data.obj
 0003:00001068       ___argv                    1002a068     libucrt:argv_data.obj
 0003:0000106c       ___wargv                   1002a06c     libucrt:argv_data.obj
 0003:00001070       __acmdln                   1002a070     libucrt:argv_data.obj
 0003:00001074       __wcmdln                   1002a074     libucrt:argv_data.obj
 0003:00001078       __pgmptr                   1002a078     libucrt:argv_data.obj
 0003:0000107c       ___acrt_heap               1002a07c     libucrt:heap_handle.obj
 0003:00001080       ___pioinfo                 1002a080     libucrt:ioinit.obj
 0003:00001280       __nhandle                  1002a280     libucrt:ioinit.obj
 0003:00001288       ___acrt_stdout_buffer      1002a288     libucrt:_sftbuf.obj
 0003:0000128c       ___acrt_stderr_buffer      1002a28c     libucrt:_sftbuf.obj
 0003:00001298       ___acrt_lconv_static_null  1002a298     libucrt:localeconv.obj
 0003:0000129c       ___acrt_lconv_static_W_null 1002a29c     libucrt:localeconv.obj
 0003:000012a0       ___fastflag                1002a2a0     libucrt:fp_flags.obj
 0003:000012a8       ?constructor_template@Database@node_sqlite3@@2V?$Persistent@VFunctionTemplate@v8@@V?$NonCopyablePersistentTraits@VFunctionTemplate@v8@@@2@@Nan@@A 1002a2a8     database.obj
 0003:000012ac       ?constructor_template@Statement@node_sqlite3@@2V?$Persistent@VFunctionTemplate@v8@@V?$NonCopyablePersistentTraits@VFunctionTemplate@v8@@@2@@Nan@@A 1002a2ac     statement.obj
 0003:000012b0       ___dyn_tls_init_callback   1002a2b0     <common>
 0003:000012b4       ___scrt_ucrt_dll_is_in_use 1002a2b4     <common>
 0003:000012b8       __pDestructExceptionObject 1002a2b8     <common>
 0003:000012bc       __pmatherr                 1002a2bc     <common>
 0003:000012c0       ___use_sse2_mathfcns       1002a2c0     <common>

 entry point at        0001:0000ccfe

 Static symbols

 0000:fffd1000       .debug$S                   10000000     iojs:node.dll
 0000:fffd1000       .debug$S                   10000000     sqlite3:sqlite3.dll
 0000:fffd1000       .debug$S                   10000000     sqlite3:sqlite3.dll
 0000:fffd1000       .debug$S                   10000000     sqlite3:sqlite3.dll
 0000:fffd1000       .debug$S                   10000000     sqlite3:sqlite3.dll
 0000:fffd1000       .debug$S                   10000000     sqlite3:sqlite3.dll
 0000:fffd1000       .debug$S                   10000000     sqlite3:sqlite3.dll
 0000:fffd1000       .debug$S                   10000000     sqlite3:sqlite3.dll
 0000:fffd1000       .debug$S                   10000000     sqlite3:sqlite3.dll
 0000:fffd1000       .debug$S                   10000000     sqlite3:sqlite3.dll
 0000:fffd1000       .debug$S                   10000000     sqlite3:sqlite3.dll
 0000:fffd1000       .debug$S                   10000000     sqlite3:sqlite3.dll
 0000:fffd1000       .debug$S                   10000000     sqlite3:sqlite3.dll
 0000:fffd1000       .debug$S                   10000000     sqlite3:sqlite3.dll
 0000:fffd1000       .debug$S                   10000000     sqlite3:sqlite3.dll
 0000:fffd1000       .debug$S                   10000000     sqlite3:sqlite3.dll
 0000:fffd1000       .debug$S                   10000000     sqlite3:sqlite3.dll
 0000:fffd1000       .debug$S                   10000000     sqlite3:sqlite3.dll
 0000:fffd1000       .debug$S                   10000000     sqlite3:sqlite3.dll
 0000:fffd1000       .debug$S                   10000000     sqlite3:sqlite3.dll
 0000:fffd1000       .debug$S                   10000000     sql_addon.exp
 0000:fffd1000       .debug$S                   10000000     sqlite3:sqlite3.dll
 0000:fffd1000       .debug$S                   10000000     sqlite3:sqlite3.dll
 0000:fffd1000       .debug$S                   10000000     sqlite3:sqlite3.dll
 0000:fffd1000       .debug$S                   10000000     sqlite3:sqlite3.dll
 0000:fffd1000       .debug$S                   10000000     sqlite3:sqlite3.dll
 0000:fffd1000       .debug$S                   10000000     kernel32:KERNEL32.dll
 0000:fffd1000       .debug$S                   10000000     kernel32:KERNEL32.dll
 0000:fffd1000       .debug$S                   10000000     kernel32:KERNEL32.dll
 0000:fffd1000       .debug$S                   10000000     kernel32:KERNEL32.dll
 0000:fffd1000       .debug$S                   10000000     kernel32:KERNEL32.dll
 0000:fffd1000       .debug$S                   10000000     kernel32:KERNEL32.dll
 0000:fffd1000       .debug$S                   10000000     kernel32:KERNEL32.dll
 0000:fffd1000       .debug$S                   10000000     kernel32:KERNEL32.dll
 0000:fffd1000       .debug$S                   10000000     kernel32:KERNEL32.dll
 0000:fffd1000       .debug$S                   10000000     kernel32:KERNEL32.dll
 0000:fffd1000       .debug$S                   10000000     kernel32:KERNEL32.dll
 0000:fffd1000       .debug$S                   10000000     kernel32:KERNEL32.dll
 0000:fffd1000       .debug$S                   10000000     kernel32:KERNEL32.dll
 0000:fffd1000       .debug$S                   10000000     kernel32:KERNEL32.dll
 0000:fffd1000       .debug$S                   10000000     kernel32:KERNEL32.dll
 0000:fffd1000       .debug$S                   10000000     kernel32:KERNEL32.dll
 0000:fffd1000       .debug$S                   10000000     kernel32:KERNEL32.dll
 0000:fffd1000       .debug$S                   10000000     kernel32:KERNEL32.dll
 0000:fffd1000       .debug$S                   10000000     kernel32:KERNEL32.dll
 0000:fffd1000       .debug$S                   10000000     kernel32:KERNEL32.dll
 0000:fffd1000       .debug$S                   10000000     kernel32:KERNEL32.dll
 0000:fffd1000       .debug$S                   10000000     kernel32:KERNEL32.dll
 0000:fffd1000       .debug$S                   10000000     kernel32:KERNEL32.dll
 0000:fffd1000       .debug$S                   10000000     kernel32:KERNEL32.dll
 0000:fffd1000       .debug$S                   10000000     kernel32:KERNEL32.dll
 0000:fffd1000       .debug$S                   10000000     kernel32:KERNEL32.dll
 0000:fffd1000       .debug$S                   10000000     kernel32:KERNEL32.dll
 0000:fffd1000       .debug$S                   10000000     kernel32:KERNEL32.dll
 0000:fffd1000       .debug$S                   10000000     kernel32:KERNEL32.dll
 0000:fffd1000       .debug$S                   10000000     kernel32:KERNEL32.dll
 0000:fffd1000       .debug$S                   10000000     kernel32:KERNEL32.dll
 0000:fffd1000       .debug$S                   10000000     kernel32:KERNEL32.dll
 0000:fffd1000       .debug$S                   10000000     kernel32:KERNEL32.dll
 0000:fffd1000       .debug$S                   10000000     kernel32:KERNEL32.dll
 0000:fffd1000       .debug$S                   10000000     kernel32:KERNEL32.dll
 0000:fffd1000       .debug$S                   10000000     kernel32:KERNEL32.dll
 0000:fffd1000       .debug$S                   10000000     kernel32:KERNEL32.dll
 0000:fffd1000       .debug$S                   10000000     kernel32:KERNEL32.dll
 0000:fffd1000       .debug$S                   10000000     kernel32:KERNEL32.dll
 0000:fffd1000       .debug$S                   10000000     kernel32:KERNEL32.dll
 0000:fffd1000       .debug$S                   10000000     kernel32:KERNEL32.dll
 0000:fffd1000       .debug$S                   10000000     kernel32:KERNEL32.dll
 0000:fffd1000       .debug$S                   10000000     kernel32:KERNEL32.dll
 0000:fffd1000       .debug$S                   10000000     kernel32:KERNEL32.dll
 0000:fffd1000       .debug$S                   10000000     kernel32:KERNEL32.dll
 0000:fffd1000       .debug$S                   10000000     kernel32:KERNEL32.dll
 0000:fffd1000       .debug$S                   10000000     kernel32:KERNEL32.dll
 0000:fffd1000       .debug$S                   10000000     kernel32:KERNEL32.dll
 0000:fffd1000       .debug$S                   10000000     kernel32:KERNEL32.dll
 0000:fffd1000       .debug$S                   10000000     kernel32:KERNEL32.dll
 0000:fffd1000       .debug$S                   10000000     kernel32:KERNEL32.dll
 0000:fffd1000       .debug$S                   10000000     kernel32:KERNEL32.dll
 0000:fffd1000       .debug$S                   10000000     kernel32:KERNEL32.dll
 0000:fffd1000       .debug$S                   10000000     kernel32:KERNEL32.dll
 0000:fffd1000       .debug$S                   10000000     kernel32:KERNEL32.dll
 0000:fffd1000       .debug$S                   10000000     kernel32:KERNEL32.dll
 0000:fffd1000       .debug$S                   10000000     kernel32:KERNEL32.dll
 0000:fffd1000       .debug$S                   10000000     kernel32:KERNEL32.dll
 0000:fffd1000       .debug$S                   10000000     kernel32:KERNEL32.dll
 0000:fffd1000       .debug$S                   10000000     kernel32:KERNEL32.dll
 0000:fffd1000       .debug$S                   10000000     kernel32:KERNEL32.dll
 0000:fffd1000       .debug$S                   10000000     kernel32:KERNEL32.dll
 0000:fffd1000       .debug$S                   10000000     kernel32:KERNEL32.dll
 0000:fffd1000       .debug$S                   10000000     kernel32:KERNEL32.dll
 0000:fffd1000       .debug$S                   10000000     kernel32:KERNEL32.dll
 0000:fffd1000       .debug$S                   10000000     kernel32:KERNEL32.dll
 0000:fffd1000       .debug$S                   10000000     kernel32:KERNEL32.dll
 0000:fffd1000       .debug$S                   10000000     kernel32:KERNEL32.dll
 0000:fffd1000       .debug$S                   10000000     kernel32:KERNEL32.dll
 0000:fffd1000       .debug$S                   10000000     kernel32:KERNEL32.dll
 0000:fffd1000       .debug$S                   10000000     kernel32:KERNEL32.dll
 0000:fffd1000       .debug$S                   10000000     kernel32:KERNEL32.dll
 0000:fffd1000       .debug$S                   10000000     kernel32:KERNEL32.dll
 0000:fffd1000       .debug$S                   10000000     kernel32:KERNEL32.dll
 0000:fffd1000       .debug$S                   10000000     kernel32:KERNEL32.dll
 0000:fffd1000       .debug$S                   10000000     kernel32:KERNEL32.dll
 0000:fffd1000       .debug$S                   10000000     kernel32:KERNEL32.dll
 0000:fffd1000       .debug$S                   10000000     kernel32:KERNEL32.dll
 0000:fffd1000       .debug$S                   10000000     kernel32:KERNEL32.dll
 0000:fffd1000       .debug$S                   10000000     kernel32:KERNEL32.dll
 0000:fffd1000       .debug$S                   10000000     kernel32:KERNEL32.dll
 0000:fffd1000       .debug$S                   10000000     kernel32:KERNEL32.dll
 0000:fffd1000       .debug$S                   10000000     kernel32:KERNEL32.dll
 0000:fffd1000       .debug$S                   10000000     kernel32:KERNEL32.dll
 0000:fffd1000       .debug$S                   10000000     kernel32:KERNEL32.dll
 0000:fffd1000       .debug$S                   10000000     kernel32:KERNEL32.dll
 0000:fffd1000       .debug$S                   10000000     kernel32:KERNEL32.dll
 0000:fffd1000       .debug$S                   10000000     kernel32:KERNEL32.dll
 0000:fffd1000       .debug$S                   10000000     sqlite3:sqlite3.dll
 0000:fffd1000       .debug$S                   10000000     iojs:node.dll
 0000:fffd1000       .debug$S                   10000000     iojs:node.dll
 0000:fffd1000       .debug$S                   10000000     iojs:node.dll
 0000:fffd1000       .debug$S                   10000000     iojs:node.dll
 0000:fffd1000       .debug$S                   10000000     iojs:node.dll
 0000:fffd1000       .debug$S                   10000000     iojs:node.dll
 0000:fffd1000       .debug$S                   10000000     iojs:node.dll
 0000:fffd1000       .debug$S                   10000000     iojs:node.dll
 0000:fffd1000       .debug$S                   10000000     iojs:node.dll
 0000:fffd1000       .debug$S                   10000000     iojs:node.dll
 0000:fffd1000       .debug$S                   10000000     iojs:node.dll
 0000:fffd1000       .debug$S                   10000000     iojs:node.dll
 0000:fffd1000       .debug$S                   10000000     iojs:node.dll
 0000:fffd1000       .debug$S                   10000000     iojs:node.dll
 0000:fffd1000       .debug$S                   10000000     iojs:node.dll
 0000:fffd1000       .debug$S                   10000000     iojs:node.dll
 0000:fffd1000       .debug$S                   10000000     iojs:node.dll
 0000:fffd1000       .debug$S                   10000000     iojs:node.dll
 0000:fffd1000       .debug$S                   10000000     iojs:node.dll
 0000:fffd1000       .debug$S                   10000000     iojs:node.dll
 0000:fffd1000       .debug$S                   10000000     iojs:node.dll
 0000:fffd1000       .debug$S                   10000000     iojs:node.dll
 0000:fffd1000       .debug$S                   10000000     iojs:node.dll
 0000:fffd1000       .debug$S                   10000000     iojs:node.dll
 0000:fffd1000       .debug$S                   10000000     iojs:node.dll
 0000:fffd1000       .debug$S                   10000000     iojs:node.dll
 0000:fffd1000       .debug$S                   10000000     iojs:node.dll
 0000:fffd1000       .debug$S                   10000000     iojs:node.dll
 0000:fffd1000       .debug$S                   10000000     iojs:node.dll
 0000:fffd1000       .debug$S                   10000000     iojs:node.dll
 0000:fffd1000       .debug$S                   10000000     iojs:node.dll
 0000:fffd1000       .debug$S                   10000000     iojs:node.dll
 0000:fffd1000       .debug$S                   10000000     iojs:node.dll
 0000:fffd1000       .debug$S                   10000000     iojs:node.dll
 0000:fffd1000       .debug$S                   10000000     iojs:node.dll
 0000:fffd1000       .debug$S                   10000000     iojs:node.dll
 0000:fffd1000       .debug$S                   10000000     iojs:node.dll
 0000:fffd1000       .debug$S                   10000000     iojs:node.dll
 0000:fffd1000       .debug$S                   10000000     iojs:node.dll
 0000:fffd1000       .debug$S                   10000000     iojs:node.dll
 0000:fffd1000       .debug$S                   10000000     iojs:node.dll
 0000:fffd1000       .debug$S                   10000000     iojs:node.dll
 0000:fffd1000       .debug$S                   10000000     iojs:node.dll
 0000:fffd1000       .debug$S                   10000000     iojs:node.dll
 0000:fffd1000       .debug$S                   10000000     iojs:node.dll
 0000:fffd1000       .debug$S                   10000000     iojs:node.dll
 0000:fffd1000       .debug$S                   10000000     iojs:node.dll
 0000:fffd1000       .debug$S                   10000000     iojs:node.dll
 0000:fffd1000       .debug$S                   10000000     iojs:node.dll
 0000:fffd1000       .debug$S                   10000000     iojs:node.dll
 0000:fffd1000       .debug$S                   10000000     iojs:node.dll
 0000:fffd1000       .debug$S                   10000000     iojs:node.dll
 0000:fffd1000       .debug$S                   10000000     iojs:node.dll
 0000:fffd1000       .debug$S                   10000000     iojs:node.dll
 0000:fffd1000       .debug$S                   10000000     iojs:node.dll
 0000:fffd1000       .debug$S                   10000000     iojs:node.dll
 0000:fffd1000       .debug$S                   10000000     iojs:node.dll
 0000:fffd1000       .debug$S                   10000000     iojs:node.dll
 0000:fffd1000       .debug$S                   10000000     iojs:node.dll
 0000:fffd1000       .debug$S                   10000000     iojs:node.dll
 0000:fffd1000       .debug$S                   10000000     iojs:node.dll
 0000:fffd1000       .debug$S                   10000000     iojs:node.dll
 0000:fffd1000       .debug$S                   10000000     iojs:node.dll
 0000:fffd1000       .debug$S                   10000000     iojs:node.dll
 0000:fffd1000       .debug$S                   10000000     iojs:node.dll
 0000:fffd1000       .debug$S                   10000000     iojs:node.dll
 0000:fffd1000       .debug$S                   10000000     iojs:node.dll
 0000:fffd1000       .debug$S                   10000000     iojs:node.dll
 0000:fffd1000       .debug$S                   10000000     iojs:node.dll
 0000:fffd1000       .debug$S                   10000000     iojs:node.dll
 0000:fffd1000       .debug$S                   10000000     iojs:node.dll
 0000:fffd1000       .debug$S                   10000000     iojs:node.dll
 0000:fffd1000       .debug$S                   10000000     iojs:node.dll
 0000:fffd1000       .debug$S                   10000000     iojs:node.dll
 0000:fffd1000       .debug$S                   10000000     iojs:node.dll
 0000:fffd1000       .debug$S                   10000000     iojs:node.dll
 0000:fffd1000       .debug$S                   10000000     iojs:node.dll
 0000:fffd1000       .debug$S                   10000000     iojs:node.dll
 0000:fffd1000       .debug$S                   10000000     iojs:node.dll
 0000:fffd1000       .debug$S                   10000000     sqlite3:sqlite3.dll
 0000:fffd1000       .debug$S                   10000000     iojs:node.dll
 0000:fffd1000       .debug$S                   10000000     iojs:node.dll
 0000:fffd1000       .debug$S                   10000000     iojs:node.dll
 0000:fffd1000       .debug$S                   10000000     iojs:node.dll
 0000:fffd1000       .debug$S                   10000000     iojs:node.dll
 0000:fffd1000       .debug$S                   10000000     iojs:node.dll
 0000:fffd1000       .debug$S                   10000000     iojs:node.dll
 0000:fffd1000       .debug$S                   10000000     iojs:node.dll
 0000:fffd1000       .debug$S                   10000000     iojs:node.dll
 0000:fffd1000       .debug$S                   10000000     iojs:node.dll
 0000:fffd1000       .debug$S                   10000000     iojs:node.dll
 0000:fffd1000       .debug$S                   10000000     iojs:node.dll
 0000:fffd1000       .debug$S                   10000000     iojs:node.dll
 0000:fffd1000       .debug$S                   10000000     iojs:node.dll
 0000:fffd1000       .debug$S                   10000000     iojs:node.dll
 0000:fffd1000       .debug$S                   10000000     iojs:node.dll
 0000:fffd1000       .debug$S                   10000000     iojs:node.dll
 0000:fffd1000       .debug$S                   10000000     iojs:node.dll
 0000:fffd1000       .debug$S                   10000000     sqlite3:sqlite3.dll
 0000:fffd1000       .debug$S                   10000000     sqlite3:sqlite3.dll
 0000:fffd1000       .debug$S                   10000000     sqlite3:sqlite3.dll
 0000:fffd1000       .debug$S                   10000000     sqlite3:sqlite3.dll
 0000:fffd1000       .debug$S                   10000000     sqlite3:sqlite3.dll
 0000:fffd1000       .debug$S                   10000000     sqlite3:sqlite3.dll
 0000:fffd1000       .debug$S                   10000000     sqlite3:sqlite3.dll
 0000:fffd1000       .debug$S                   10000000     sqlite3:sqlite3.dll
 0000:fffd1000       .debug$S                   10000000     sqlite3:sqlite3.dll
 0000:fffd1000       .debug$S                   10000000     sqlite3:sqlite3.dll
 0000:fffd1000       .debug$S                   10000000     sqlite3:sqlite3.dll
 0001:00000000       ??__E?constructor_template@Database@node_sqlite3@@2V?$Persistent@VFunctionTemplate@v8@@V?$NonCopyablePersistentTraits@VFunctionTemplate@v8@@@2@@Nan@@A@@YAXXZ 10001000 f   database.obj
 0001:00000020       ??__E?constructor_template@Statement@node_sqlite3@@2V?$Persistent@VFunctionTemplate@v8@@V?$NonCopyablePersistentTraits@VFunctionTemplate@v8@@@2@@Nan@@A@@YAXXZ 10001020 f   statement.obj
 0001:00000040       ?FunctionCallbackWrapper@imp@Nan@@YAXABV?$FunctionCallbackInfo@VValue@v8@@@v8@@@Z 10001040 f   database.obj
 0001:00000100       ?GetterCallbackWrapper@imp@Nan@@YAXV?$Local@VName@v8@@@v8@@ABV?$PropertyCallbackInfo@VValue@v8@@@4@@Z 10001100 f   database.obj
 0001:00004fd0       ?RegisterModule@?A0xdcfd13d1@@YAXV?$Local@VObject@v8@@@v8@@@Z 10005fd0 f   node_sqlite3.obj
 0001:00006494       $LN41                      10007494     node_sqlite3.obj
 0001:0000650c       $LN39                      1000750c     node_sqlite3.obj
 0001:00006580       __register_node_sqlite3    10007580 f   node_sqlite3.obj
 0001:00006938       $LN190                     10007938     statement.obj
 0001:000077e4       $LN220                     100087e4     statement.obj
 0001:00009854       $LN261                     1000a854     statement.obj
 0001:00009868       $LN262                     1000a868     statement.obj
 0001:00009ae8       $LN370                     1000aae8     statement.obj
 0001:0000c6b3       ?find_pe_section@@YAPAU_IMAGE_SECTION_HEADER@@QAEI@Z 1000d6b3 f   LIBCMT:utility.obj
 0001:0000c9f6       ?dllmain_crt_dispatch@@YGHQAUHINSTANCE__@@KQAX@Z 1000d9f6 f   LIBCMT:dll_dllmain.obj
 0001:0000ca49       ?dllmain_crt_process_attach@@YAHQAUHINSTANCE__@@QAX@Z 1000da49 f   LIBCMT:dll_dllmain.obj
 0001:0000cb5b       ?dllmain_crt_process_detach@@YAH_N@Z 1000db5b f   LIBCMT:dll_dllmain.obj
 0001:0000cbd8       ?dllmain_dispatch@@YAHQAUHINSTANCE__@@KQAX@Z 1000dbd8 f   LIBCMT:dll_dllmain.obj
 0001:0000ccd4       ?dllmain_raw@@YGHQAUHINSTANCE__@@KQAX@Z 1000dcd4 f   LIBCMT:dll_dllmain.obj
 0001:0000d190       $$000000                   1000e190     LIBCMT:_sehprolg4_.obj
 0001:0000d330       $$000000                   1000e330     libvcruntime:memmove.obj
 0001:0000d594       TrailingUpVec              1000e594     libvcruntime:memmove.obj
 0001:0000d640       TrailingDownVec            1000e640     libvcruntime:memmove.obj
 0001:0000da00       _ValidateLocalCookies      1000ea00 f   libvcruntime:_chandler4_.obj
 0001:0000dbb0       $$000000                   1000ebb0     libvcruntime:memset.obj
 0001:0000deca       ?try_get_function@@YAPAXW4function_id@?A0x89697e75@@QBDQBW4module_id@2@2@Z 1000eeca f   libvcruntime:winapi_downlevel.obj
 0001:0000df6a       ?try_get_module@@YAPAUHINSTANCE__@@W4module_id@?A0x89697e75@@@Z 1000ef6a f   libvcruntime:winapi_downlevel.obj
 0001:0000e1b0       $$000000                   1000f1b0     libvcruntime:_exsup4_.obj
 0001:0000e240       __unwind_handler4          1000f240 f   libvcruntime:_exsup4_.obj
 0001:0000e310       $$000000                   1000f310     libvcruntime:_exsup_.obj
 0001:0000e330       __unwind_handler           1000f330 f   libvcruntime:_exsup_.obj
 0001:0000e4cf       ??$common_assert_to_message_box@_W@@YAXQB_W0IQAX@Z 1000f4cf f   libucrt:assert.obj
 0001:0000e56b       ??$common_assert_to_message_box_build_string@_W@@YAXQA_WIQB_W1IQAX@Z 1000f56b f   libucrt:assert.obj
 0001:0000eab0       ??$common_assert_to_stderr@_W@@YAXQB_W0I@Z 1000fab0 f   libucrt:assert.obj
 0001:0000eb5b       ?common_assert_to_stderr_direct@@YAXQB_W0I@Z 1000fb5b f   libucrt:assert.obj
 0001:0000ec0c       ?get_assert_format@@YAPB_W_W@Z 1000fc0c f   libucrt:assert.obj
 0001:0000f18a       ?atexit_exception_filter@@YAHK@Z 1001018a f   libucrt:exit.obj
 0001:0000f19d       ?common_exit@@YAXHW4_crt_exit_cleanup_mode@@W4_crt_exit_return_mode@@@Z 1001019d f   libucrt:exit.obj
 0001:0000f2b6       ?exit_or_terminate_process@@YAXI@Z 100102b6 f   libucrt:exit.obj
 0001:0000f2f7       ?is_managed_app@@YA_NXZ    100102f7 f   libucrt:exit.obj
 0001:0000f33b       ?try_cor_exit_process@@YAXI@Z 1001033b f   libucrt:exit.obj
 0001:0000f3df       ??$common_configure_argv@D@@YAHW4_crt_argv_mode@@@Z 100103df f   libucrt:argv_parsing.obj
 0001:0000f503       ??$parse_command_line@D@@YAXPADPAPAD0PAI2@Z 10010503 f   libucrt:argv_parsing.obj
 0001:0000f6d8       ??$common_initialize_environment_nolock@D@@YAHXZ 100106d8 f   libucrt:environment_initialization.obj
 0001:0000f731       ??$create_environment@D@@YAQAPADQAD@Z 10010731 f   libucrt:environment_initialization.obj
 0001:0000f802       ??$free_environment@_W@@YAXQAPA_W@Z 10010802 f   libucrt:environment_initialization.obj
 0001:0000f802       ??$free_environment@D@@YAXQAPAD@Z 10010802 f   libucrt:environment_initialization.obj
 0001:0000f871       ??$uninitialize_environment_internal@D@@YAXAAPAPAD@Z 10010871 f   libucrt:environment_initialization.obj
 0001:0000f88c       ??$uninitialize_environment_internal@_W@@YAXAAPAPA_W@Z 1001088c f   libucrt:environment_initialization.obj
 0001:0000f9f4       ??R<lambda_275893d493268fdec8709772e3fcec0e>@@QBEHXZ 100109f4 f   libucrt:onexit.obj
 0001:0000fb14       ??R<lambda_4e60a939b0d047cfe11ddc22648dfba9>@@QBEHXZ 10010b14 f   libucrt:onexit.obj
 0001:0000fce9       _initialize_global_variables 10010ce9 f   libucrt:initialization.obj
 0001:0000fcfb       _initialize_c              10010cfb f   libucrt:initialization.obj
 0001:0000fd15       _uninitialize_global_state_isolation 10010d15 f   libucrt:initialization.obj
 0001:0000fd15       _initialize_global_state_isolation 10010d15 f   libucrt:initialization.obj
 0001:0000fd15       _report_memory_leaks       10010d15 f   libucrt:initialization.obj
 0001:0000fd15       _uninitialize_c            10010d15 f   libucrt:initialization.obj
 0001:0000fd15       _initialize_environment    10010d15 f   libucrt:initialization.obj
 0001:0000fd18       _uninitialize_environment  10010d18 f   libucrt:initialization.obj
 0001:0000fd20       _initialize_pointers       10010d20 f   libucrt:initialization.obj
 0001:0000fd5d       _uninitialize_vcruntime    10010d5d f   libucrt:initialization.obj
 0001:0000fd66       _uninitialize_allocated_memory 10010d66 f   libucrt:initialization.obj
 0001:000100fe       ??$common_vsprintf@Vstandard_base@__crt_stdio_output@@_W@@YAH_KQA_WIQB_WQAU__crt_locale_pointers@@QAD@Z 100110fe f   libucrt:output.obj
 0001:000105e8       ??R<lambda_481dd5778c961fbcd3b60b650e9b9dc4>@@QBEHXZ 100115e8 f   libucrt:output.obj
 0001:000108ea       $LN54                      100118ea     libucrt:output.obj
 0001:00010a0a       $LN54                      10011a0a     libucrt:output.obj
 0001:0001130e       $LN19                      1001230e     libucrt:output.obj
 0001:000123f9       ??$common_tox_l@$1?internal_isupper_l@@YA_NHQAU__crt_locale_pointers@@@Z$1?internal_map_lower@@YAHH0@Z@@YAHHKQAU__crt_locale_pointers@@@Z 100133f9 f   libucrt:tolower_toupper.obj
 0001:00012543       ?internal_isupper_l@@YA_NHQAU__crt_locale_pointers@@@Z 10013543 f   libucrt:tolower_toupper.obj
 0001:0001278e       ?construct_ptd@@YAXQAU__acrt_ptd@@QAPAU__crt_locale_data@@@Z 1001378e f   libucrt:per_thread_data.obj
 0001:00012807       ?destroy_fls@@YGXPAX@Z     10013807 f   libucrt:per_thread_data.obj
 0001:00012828       ?destroy_ptd@@YAXQAU__acrt_ptd@@@Z 10013828 f   libucrt:per_thread_data.obj
 0001:000128d1       ?replace_current_thread_locale_nolock@@YAXQAU__acrt_ptd@@QAU__crt_locale_data@@@Z 100138d1 f   libucrt:per_thread_data.obj
 0001:00012b54       ??$common_xtox@K_W@@YAHKQA_WII_N@Z 10013b54 f   libucrt:xtoa.obj
 0001:00012be2       ??$common_xtox_s@K_W@@YAHKQA_WII_N@Z 10013be2 f   libucrt:xtoa.obj
 0001:00012d8e       ??$common_tcsncat_s@_W@@YAHQA_WIQB_WI@Z 10013d8e f   libucrt:wcsncat_s.obj
 0001:00012e82       ??$common_show_message_box@_W@@YAHQB_W0I@Z 10013e82 f   libucrt:crtmbox.obj
 0001:00012f5b       ??$message_box_wait_thread@_W@@YGKQAX@Z 10013f5b f   libucrt:crtmbox.obj
 0001:0001318a       _common_flush_all          1001418a f   libucrt:fflush.obj
 0001:00013334       ??R<lambda_b721fa326cdb32351d23dfa67958c160>@@QBEHXZ 10014334 f   libucrt:setvbuf.obj
 0001:000133ce       ?set_buffer@@YAHV__crt_stdio_stream@@QADIH@Z 100143ce f   libucrt:setvbuf.obj
 0001:000134f9       ?get_global_action_nolock@@YAPAP6AXH@ZH@Z 100144f9 f   libucrt:signal.obj
 0001:0001353b       ?siglookup@@YAPAU__crt_signal_action_t@@HQAU1@@Z 1001453b f   libucrt:signal.obj
 0001:00013866       ?try_get_MessageBoxA@@YAP6GHPAUHWND__@@PBD1I@ZXZ 10014866 f   libucrt:winapi_thunks.obj
 0001:00013880       ?try_get_MessageBoxW@@YAP6GHPAUHWND__@@PB_W1I@ZXZ 10014880 f   libucrt:winapi_thunks.obj
 0001:0001389a       ?try_get_function@@YAPAXW4function_id@?A0x352e5c4b@@QBDQBW4module_id@2@2@Z 1001489a f   libucrt:winapi_thunks.obj
 0001:00013936       ?try_get_module@@YAPAUHINSTANCE__@@W4module_id@?A0x352e5c4b@@@Z 10014936 f   libucrt:winapi_thunks.obj
 0001:00013ebc       ?<helper_func_cdecl>@<lambda_62bb7ecb46d0a77b591a051c43eb5ad1>@@CAHPBX0@Z 10014ebc f   libucrt:argv_wildcards.obj
 0001:00013ed4       ??$common_expand_argv_wildcards@D@@YAHQAPADQAPAPAD@Z 10014ed4 f   libucrt:argv_wildcards.obj
 0001:00014064       ??$copy_and_add_argument_to_buffer@D@@YAHQBD0IAAV?$argument_list@D@?A0xb0e4b824@@@Z 10015064 f   libucrt:argv_wildcards.obj
 0001:000140fa       ??$expand_argument_wildcards@D@@YAHQAD0AAV?$argument_list@D@?A0xb0e4b824@@@Z 100150fa f   libucrt:argv_wildcards.obj
 0001:000143d5       ??R<lambda_ad1ced32f4ac17aa236e5ef05d6b3b7c>@@QBEXXZ 100153d5 f   libucrt:mbctype.obj
 0001:00014499       ?CPtoLocaleName@@YAPB_WH@Z 10015499 f   libucrt:mbctype.obj
 0001:000144d7       ?getSystemCP@@YAHH@Z       100154d7 f   libucrt:mbctype.obj
 0001:0001454a       ?setSBCS@@YAXPAU__crt_multibyte_data@@@Z 1001554a f   libucrt:mbctype.obj
 0001:000145af       ?setSBUpLow@@YAXPAU__crt_multibyte_data@@@Z 100155af f   libucrt:mbctype.obj
 0001:00014743       ?setmbcp_internal@@YAHH_N@Z 10015743 f   libucrt:mbctype.obj
 0001:00014af5       _memcpy_s                  10015af5 f   libucrt:cfout.obj
 0001:00014af5       _memcpy_s                  10015af5 f   libucrt:assert.obj
 0001:00014af5       _memcpy_s                  10015af5 f   libucrt:mbctype.obj
 0001:00014b76       ?x_ismbbtype_l@@YAHPAU__crt_locale_pointers@@IHH@Z 10015b76 f   libucrt:ismbbyte.obj
 0001:00014c00       ?find_end_of_double_null_terminated_sequence@@YAPB_WQB_W@Z 10015c00 f   libucrt:get_environment_from_os.obj
 0001:00014d4d       ?initialize_inherited_file_handles_nolock@@YAXXZ 10015d4d f   libucrt:ioinit.obj
 0001:00014e03       ?initialize_stdio_handles_nolock@@YAXXZ 10015e03 f   libucrt:ioinit.obj
 0001:000156b4       ?fp_format_a@@YAHQBNPADIQADIH_NIQAU__crt_locale_pointers@@@Z 100166b4 f   libucrt:cvt.obj
 0001:000159b7       ?fp_format_e@@YAHQBNQADI1IH_NIQAU__crt_locale_pointers@@@Z 100169b7 f   libucrt:cvt.obj
 0001:00015a52       ?fp_format_e_internal@@YAHQADIH_NIQAU_strflt@@1QAU__crt_locale_pointers@@@Z 10016a52 f   libucrt:cvt.obj
 0001:00015b9d       ?fp_format_f@@YAHQBNQADI1IHQAU__crt_locale_pointers@@@Z 10016b9d f   libucrt:cvt.obj
 0001:00015c2a       ?fp_format_f_internal@@YAHQADIHQAU_strflt@@_NQAU__crt_locale_pointers@@@Z 10016c2a f   libucrt:cvt.obj
 0001:00015d01       ?fp_format_g@@YAHQBNQADI1IH_NIQAU__crt_locale_pointers@@@Z 10016d01 f   libucrt:cvt.obj
 0001:00015dc9       ?fp_format_nan_or_infinity@@YAHW4__acrt_fp_class@@_NPADI1@Z 10016dc9 f   libucrt:cvt.obj
 0001:00015ec1       ?shift_bytes@@YAXQADI0H@Z  10016ec1 f   libucrt:cvt.obj
 0001:0001603f       ?fputwc_binary_nolock@@YAG_WV__crt_stdio_stream@@@Z 1001703f f   libucrt:fputwc.obj
 0001:0001638b       ?__acrt_LCMapStringA_stat@@YAHPAU__crt_locale_pointers@@PB_WKPBDHPADHHH@Z 1001738b f   libucrt:lcmapstringa.obj
 0001:00016b0b       ?free_crt_array_internal@@YAXQAPBXI@Z 10017b0b f   libucrt:inittime.obj
 0001:00016f55       ?write_double_translated_ansi_nolock@@YA?AUwrite_result@?A0x47fa6670@@HQBDI@Z 10017f55 f   libucrt:write.obj
 0001:00017108       ?write_double_translated_unicode_nolock@@YA?AUwrite_result@?A0x47fa6670@@QBDI@Z 10018108 f   libucrt:write.obj
 0001:00017175       ?write_requires_double_translation_nolock@@YA_NH@Z 10018175 f   libucrt:write.obj
 0001:000171eb       ?write_text_ansi_nolock@@YA?AUwrite_result@?A0x47fa6670@@HQBDI@Z 100181eb f   libucrt:write.obj
 0001:000172ca       ?write_text_utf16le_nolock@@YA?AUwrite_result@?A0x47fa6670@@HQBDI@Z 100182ca f   libucrt:write.obj
 0001:000173b8       ?write_text_utf8_nolock@@YA?AUwrite_result@?A0x47fa6670@@HQBDI@Z 100183b8 f   libucrt:write.obj
 0001:000177dc       ?GetTableIndexFromLocaleName@@YAHPB_W@Z 100187dc f   libucrt:lcidtoname_downlevel.obj
 0001:000178d0       ?shortsort@@YAXPAD0IP6AHPBX1@Z@Z 100188d0 f   libucrt:qsort.obj
 0001:00017970       ?swap@@YAXPAD0I@Z          10018970 f   libucrt:qsort.obj
 0001:00017d4a       ??$common_tcsncpy_s@D@@YAHQADIQBDI@Z 10018d4a f   libucrt:strncpy_s.obj
 0001:00017e10       $$000000                   10018e10     libucrt:strpbrk.obj
 0001:00017ef4       ?initialize_multibyte@@YAHXZ 10018ef4 f   libucrt:multibyte_initializer.obj
 0001:00019bba       ??$common_flush_and_write_nolock@D@@YAHHV__crt_stdio_stream@@@Z 1001abba f   libucrt:_flsbuf.obj
 0001:00019ccb       ??$common_flush_and_write_nolock@_W@@YAHHV__crt_stdio_stream@@@Z 1001accb f   libucrt:_flsbuf.obj
 0001:00019de0       ??$write_buffer_nolock@D@@YA_NDV__crt_stdio_stream@@@Z 1001ade0 f   libucrt:_flsbuf.obj
 0001:00019eac       ??$write_buffer_nolock@_W@@YA_N_WV__crt_stdio_stream@@@Z 1001aeac f   libucrt:_flsbuf.obj
 0001:0001a0a8       ??$common_lseek@_J@@YA_JH_JH@Z 1001b0a8 f   libucrt:lseek.obj
 0001:0001a1ad       ??$common_lseek_nolock@_J@@YA_JH_JH@Z 1001b1ad f   libucrt:lseek.obj
 0001:0001a360       $$000000                   1001b360     libucrt:log10.obj
 0001:0001a4b0       $$000000                   1001b4b0     libucrt:ceil_pentium4.obj
 0001:0001a860       $$000000                   1001b860     libucrt:_strnicm.obj
 0001:0001a8c1       ___get_abstract_control_sse2 1001b8c1 f   libucrt:_fenvutils.obj
 0001:0001a93e       ___get_abstract_control_x87 1001b93e f   libucrt:_fenvutils.obj
 0001:0001a9b1       ___get_machine_control     1001b9b1 f   libucrt:_fenvutils.obj
 0001:0001aa22       ___get_machine_control_sse2 1001ba22 f   libucrt:_fenvutils.obj
 0001:0001aaa2       ___get_machine_status_sse2 1001baa2 f   libucrt:_fenvutils.obj
 0001:0001ab03       ___get_machine_status_x87  1001bb03 f   libucrt:_fenvutils.obj
 0001:0001ae40       $$000000                   1001be40     libucrt:log10_pentium4.obj
 0001:0001b0d0       $$000000                   1001c0d0     libucrt:87tran.obj
 0001:0001b2d0       $$000000                   1001c2d0     libucrt:87disp.obj
 0001:0001b4d0       $$000000                   1001c4d0     libucrt:common.obj
 0001:0001b660       $$000000                   1001c660     libucrt:genexcep.obj
 0001:0001c710       $$000000                   1001d710     LIBCMT:ulldvrm.obj
 0001:0001c7b0       $$000000                   1001d7b0     LIBCMT:_sehprolg4gs_.obj
 0001:0001c810       $$000000                   1001d810     LIBCMT:llmul.obj
 0001:0001c850       $$000000                   1001d850     LIBCMT:lldvrm.obj
 0001:0001c930       $$000000                   1001d930     LIBCMT:ullshr.obj
 0001:0001c950       $$000000                   1001d950     LIBCMT:alloca16.obj
 0001:0001c980       $$000000                   1001d980     LIBCMT:chkstk.obj
 0001:0001c9b0       $$000000                   1001d9b0     LIBCMT:llshl.obj
 0001:0001c9d0       $$000000                   1001d9d0     LIBCMT:_ftol2_.obj
 0001:0001ca90       $$000000                   1001da90     libvcruntime:memcpy.obj
 0001:0001ccf4       TrailingUpVec              1001dcf4     libvcruntime:memcpy.obj
 0001:0001cda0       TrailingDownVec            1001dda0     libvcruntime:memcpy.obj
 0001:0001d010       $$000000                   1001e010     libvcruntime:strchr.obj
 0001:0001d140       $$000000                   1001e140     libvcruntime:strrchr.obj
 0001:0001d280       $$000000                   1001e280     LIBCMT:_ftol3_.obj
 0001:0001d600       ??__F?constructor_template@Database@node_sqlite3@@2V?$Persistent@VFunctionTemplate@v8@@V?$NonCopyablePersistentTraits@VFunctionTemplate@v8@@@2@@Nan@@A@@YAXXZ 1001e600 f   database.obj
 0001:0001d610       ??__F?constructor_template@Statement@node_sqlite3@@2V?$Persistent@VFunctionTemplate@v8@@V?$NonCopyablePersistentTraits@VFunctionTemplate@v8@@@2@@Nan@@A@@YAXXZ 1001e610 f   statement.obj
 0002:00000300       ??constructor_template$initializer$@Database@node_sqlite3@@2P6AXXZA@@3P6AXXZA 1001f300     database.obj
 0002:00000304       ??constructor_template$initializer$@Statement@node_sqlite3@@2P6AXXZA@@3P6AXXZA 1001f304     statement.obj
 0002:000003ac       _GS_ExceptionPointers      1001f3ac     LIBCMT:gs_report.obj
 0002:000003d8       ?ExceptionTemplate@?1??_CxxThrowException@@9@8@4UEHExceptionRecord@@B 1001f3d8     libvcruntime:throw.obj
 0002:000003f8       ?module_names@?A0x89697e75@@3QBQB_WB 1001f3f8     libvcruntime:winapi_downlevel.obj
 0002:000004a8       ?candidate_modules@?1??try_get_FlsAlloc@@YAP6GKP6GXPAX@Z@ZXZ@4QBW4module_id@?A0x89697e75@@B 1001f4a8     libvcruntime:winapi_downlevel.obj
 0002:000004bc       ?candidate_modules@?1??try_get_FlsFree@@YAP6GHK@ZXZ@4QBW4module_id@?A0x89697e75@@B 1001f4bc     libvcruntime:winapi_downlevel.obj
 0002:000004cc       ?candidate_modules@?1??try_get_FlsGetValue@@YAP6GPAXK@ZXZ@4QBW4module_id@?A0x89697e75@@B 1001f4cc     libvcruntime:winapi_downlevel.obj
 0002:000004e0       ?candidate_modules@?1??try_get_FlsSetValue@@YAP6GHKPAX@ZXZ@4QBW4module_id@?A0x89697e75@@B 1001f4e0     libvcruntime:winapi_downlevel.obj
 0002:000004f4       ?candidate_modules@?1??try_get_InitializeCriticalSectionEx@@YAP6GHPAU_RTL_CRITICAL_SECTION@@KK@ZXZ@4QBW4module_id@?A0x89697e75@@B 1001f4f4     libvcruntime:winapi_downlevel.obj
 0002:00000518       ?tokenTable@@3QBQBDB       1001f518     libvcruntime:undname.obj
 0002:00000550       ?nameTable@@3QBQBDB        1001f550     libvcruntime:undname.obj
 0002:00000694       ?rttiTable@@3QBQBDB        1001f694     libvcruntime:undname.obj
 0002:00000ff8       ___acrt_initializers       1001fff8     libucrt:initialization.obj
 0002:000010e8       _errtable                  100200e8     libucrt:errno.obj
 0002:00001718       _module_names              10020718     libucrt:winapi_thunks.obj
 0002:00001bb8       ?candidate_modules@?1??try_get_FlsAlloc@@YAP6GKP6GXPAX@Z@ZXZ@4QBW4module_id@?A0x352e5c4b@@B 10020bb8     libucrt:winapi_thunks.obj
 0002:00001bc0       ?candidate_modules@?1??try_get_FlsFree@@YAP6GHK@ZXZ@4QBW4module_id@?A0x352e5c4b@@B 10020bc0     libucrt:winapi_thunks.obj
 0002:00001bc8       ?candidate_modules@?1??try_get_FlsGetValue@@YAP6GPAXK@ZXZ@4QBW4module_id@?A0x352e5c4b@@B 10020bc8     libucrt:winapi_thunks.obj
 0002:00001bd0       ?candidate_modules@?1??try_get_FlsSetValue@@YAP6GHKPAX@ZXZ@4QBW4module_id@?A0x352e5c4b@@B 10020bd0     libucrt:winapi_thunks.obj
 0002:00001bd8       ?candidate_modules@?1??try_get_GetActiveWindow@@YAP6GPAUHWND__@@XZXZ@4QBW4module_id@?A0x352e5c4b@@B 10020bd8     libucrt:winapi_thunks.obj
 0002:00001bf0       ?candidate_modules@?1??try_get_GetCurrentPackageId@@YAP6GJPAIPAE@ZXZ@4QBW4module_id@?A0x352e5c4b@@B 10020bf0     libucrt:winapi_thunks.obj
 0002:00001c0c       ?candidate_modules@?1??try_get_GetLastActivePopup@@YAP6GPAUHWND__@@PAU2@@ZXZ@4QBW4module_id@?A0x352e5c4b@@B 10020c0c     libucrt:winapi_thunks.obj
 0002:00001c28       ?candidate_modules@?1??try_get_GetProcessWindowStation@@YAP6GPAUHWINSTA__@@XZXZ@4QBW4module_id@?A0x352e5c4b@@B 10020c28     libucrt:winapi_thunks.obj
 0002:00001c48       ?candidate_modules@?1??try_get_GetUserObjectInformationW@@YAP6GHPAXH0KPAK@ZXZ@4QBW4module_id@?A0x352e5c4b@@B 10020c48     libucrt:winapi_thunks.obj
 0002:00001c6c       ?candidate_modules@?1??try_get_InitializeCriticalSectionEx@@YAP6GHPAU_RTL_CRITICAL_SECTION@@KK@ZXZ@4QBW4module_id@?A0x352e5c4b@@B 10020c6c     libucrt:winapi_thunks.obj
 0002:00001c74       ?candidate_modules@?1??try_get_LCMapStringEx@@YAP6GHPB_WK0HPA_WHPAU_nlsversioninfo@@PAXJ@ZXZ@4QBW4module_id@?A0x352e5c4b@@B 10020c74     libucrt:winapi_thunks.obj
 0002:00001c8c       ?candidate_modules@?1??try_get_LocaleNameToLCID@@YAP6GKPB_WK@ZXZ@4QBW4module_id@?A0x352e5c4b@@B 10020c8c     libucrt:winapi_thunks.obj
 0002:00001ca8       ?candidate_modules@?1??try_get_MessageBoxA@@YAP6GHPAUHWND__@@PBD1I@ZXZ@4QBW4module_id@?A0x352e5c4b@@B 10020ca8     libucrt:winapi_thunks.obj
 0002:00001cbc       ?candidate_modules@?1??try_get_MessageBoxW@@YAP6GHPAUHWND__@@PB_W1I@ZXZ@4QBW4module_id@?A0x352e5c4b@@B 10020cbc     libucrt:winapi_thunks.obj
 0002:00001cd0       __mb_locale_names          10020cd0     libucrt:mbctype.obj
 0002:00002568       _LcidToLocaleNameTable     10021568     libucrt:lcidtoname_downlevel.obj
 0002:00003688       _LocaleNameToIndexTable    10022688     libucrt:lcidtoname_downlevel.obj
 0002:00004fc0       LOG_name                   10023fc0     libucrt:log10.obj
 0002:00004fd0       _One                       10023fd0     libucrt:ceil_pentium4.obj
 0002:00004fe0       _Bns                       10023fe0     libucrt:ceil_pentium4.obj
 0002:00004ff0       _Zero                      10023ff0     libucrt:ceil_pentium4.obj
 0002:00005000       _S                         10024000     libucrt:ceil_pentium4.obj
 0002:00005010       _NegZero                   10024010     libucrt:ceil_pentium4.obj
 0002:00005030       emask                      10024030     libucrt:log10_pentium4.obj
 0002:00005040       CC                         10024040     libucrt:log10_pentium4.obj
 0002:00005050       Magic                      10024050     libucrt:log10_pentium4.obj
 0002:00005060       hi_mask                    10024060     libucrt:log10_pentium4.obj
 0002:00005070       LOG10_2                    10024070     libucrt:log10_pentium4.obj
 0002:00005080       place_L                    10024080     libucrt:log10_pentium4.obj
 0002:000050a0       One                        100240a0     libucrt:log10_pentium4.obj
 0002:000050b0       Zero                       100240b0     libucrt:log10_pentium4.obj
 0002:000050c0       Two52                      100240c0     libucrt:log10_pentium4.obj
 0002:000050d0       Infs                       100240d0     libucrt:log10_pentium4.obj
 0002:000050e0       NaN                        100240e0     libucrt:log10_pentium4.obj
 0002:000050f0       coeff                      100240f0     libucrt:log10_pentium4.obj
 0002:0000514e       _log2max                   1002414e     libucrt:87tran.obj
 0002:00005158       _smallarg                  10024158     libucrt:87tran.obj
 0002:00005162       _half                      10024162     libucrt:87tran.obj
 0002:000051ae       One                        100241ae     libucrt:87disp.obj
 0002:000051b6       Three                      100241b6     libucrt:87disp.obj
 0002:000051be       XAMtoTagTab                100241be     libucrt:87disp.obj
 0002:000051d0       One                        100241d0     libucrt:common.obj
 0002:000051e4       DblMax                     100241e4     libucrt:common.obj
 0002:000051ec       DblMin                     100241ec     libucrt:common.obj
 0002:000051f4       IeeeAdjO                   100241f4     libucrt:common.obj
 0002:000051fc       IeeeAdjU                   100241fc     libucrt:common.obj
 0002:00005204       _infinity                  10024204     libucrt:common.obj
 0002:0000520c       _zero                      1002420c     libucrt:common.obj
 0002:00005248       _over                      10024248     libucrt:fpctrl.obj
 0002:00005254       _under                     10024254     libucrt:fpctrl.obj
 0002:00005b18       ?_names@?1??_get_fname@@9@9 10024b18     libucrt:fpexcept.obj
 0002:000069a0       _Int32ToUInt32             100259a0     LIBCMT:_ftol3_.obj
 0002:000069a8       _DP2to32                   100259a8     LIBCMT:_ftol3_.obj
 0002:000069b0       _MantissaMask              100259b0     LIBCMT:_ftol3_.obj
 0002:000069b8       _IntegerBit                100259b8     LIBCMT:_ftol3_.obj
 0002:000069c0       _SignBit64                 100259c0     LIBCMT:_ftol3_.obj
 0002:000069c8       _MinFP64                   100259c8     LIBCMT:_ftol3_.obj
 0002:000069d0       _MinInt64                  100259d0     LIBCMT:_ftol3_.obj
 0002:000069d8       _MaxInt64                  100259d8     LIBCMT:_ftol3_.obj
 0002:000069e0       _MaxUInt64                 100259e0     LIBCMT:_ftol3_.obj
 0002:000069e8       _MaxFP32                   100259e8     LIBCMT:_ftol3_.obj
 0002:000069f0       _MinFP32                   100259f0     LIBCMT:_ftol3_.obj
 0002:000069f8       _MinSubInexact             100259f8     LIBCMT:_ftol3_.obj
 0002:00006a00       _FpExcptTable              10025a00     LIBCMT:_ftol3_.obj
 0002:00006a10       _i1075                     10025a10     LIBCMT:_ftol3_.obj
 0002:00006a14       _i1087                     10025a14     LIBCMT:_ftol3_.obj
 0002:00006a18       _x0800                     10025a18     LIBCMT:_ftol3_.obj
 0002:00006a1c       _x17FF                     10025a1c     LIBCMT:_ftol3_.obj
 0002:00006a20       _CWMask                    10025a20     LIBCMT:_ftol3_.obj
 0002:00007160       __sehtable$___scrt_is_nonwritable_in_current_image 10026160     LIBCMT:utility.obj
 0002:00007180       __sehtable$?dllmain_crt_process_attach@@YAHQAUHINSTANCE__@@QAX@Z 10026180     LIBCMT:dll_dllmain.obj
 0002:000071a0       __sehtable$?dllmain_crt_process_detach@@YAH_N@Z 100261a0     LIBCMT:dll_dllmain.obj
 0002:000071c0       __sehtable$?dllmain_dispatch@@YAHQAUHINSTANCE__@@KQAX@Z 100261c0     LIBCMT:dll_dllmain.obj
 0002:00007218       __sehtable$__query_new_handler 10026218     libucrt:new_handler.obj
 0002:00007238       __sehtable$?common_exit@@YAXHW4_crt_exit_cleanup_mode@@W4_crt_exit_return_mode@@@Z 10026238     libucrt:exit.obj
 0002:00007260       __sehtable$??$?RV<lambda_800076c951b434888f4765a74a194fcc>@@AAV<lambda_4e60a939b0d047cfe11ddc22648dfba9>@@V<lambda_6dbb1268764f43b569ce7b67e331d33a>@@@?$__crt_seh_guarded_call@H@@QAEH$$QAV<lambda_800076c951b434888f4765a74a194fcc>@@AAV<lambda_4e60a939b0d047cfe11ddc22648dfba9>@@$$QAV<lambda_6dbb1268764f43b569ce7b67e331d33a>@@@Z 10026260     libucrt:onexit.obj
 0002:00007280       __sehtable$??$?RV<lambda_995298e7d72eb4c2aab26c0585b3abe5>@@AAV<lambda_275893d493268fdec8709772e3fcec0e>@@V<lambda_293819299cbf9a7022e18b56a874bb5c>@@@?$__crt_seh_guarded_call@H@@QAEH$$QAV<lambda_995298e7d72eb4c2aab26c0585b3abe5>@@AAV<lambda_275893d493268fdec8709772e3fcec0e>@@$$QAV<lambda_293819299cbf9a7022e18b56a874bb5c>@@@Z 10026280     libucrt:onexit.obj
 0002:000072a0       __sehtable$_terminate      100262a0     libucrt:terminate.obj
 0002:000072c0       __sehtable$??$?RV<lambda_ab9923ffb5d694ec0d78876dd103e44f>@@AAV<lambda_481dd5778c961fbcd3b60b650e9b9dc4>@@V<lambda_7923d86c9e3f319b415918ec4b39749c>@@@?$__crt_seh_guarded_call@H@@QAEH$$QAV<lambda_ab9923ffb5d694ec0d78876dd103e44f>@@AAV<lambda_481dd5778c961fbcd3b60b650e9b9dc4>@@$$QAV<lambda_7923d86c9e3f319b415918ec4b39749c>@@@Z 100262c0     libucrt:output.obj
 0002:000072e0       __sehtable$??$?RV<lambda_9df27f884b057bc3edfc946cb5b7cf47>@@AAV<lambda_e69574bed617af4e071282c136b37893>@@V<lambda_cc0d902bcbbeb830f749456577db4721>@@@?$__crt_seh_guarded_call@X@@QAEX$$QAV<lambda_9df27f884b057bc3edfc946cb5b7cf47>@@AAV<lambda_e69574bed617af4e071282c136b37893>@@$$QAV<lambda_cc0d902bcbbeb830f749456577db4721>@@@Z 100262e0     libucrt:per_thread_data.obj
 0002:00007300       __sehtable$??$?RV<lambda_3518db117f0e7cdb002338c5d3c47b6c>@@AAV<lambda_b2ea41f6bbb362cd97d94c6828d90b61>@@V<lambda_abdedf541bb04549bc734292b4a045d4>@@@?$__crt_seh_guarded_call@X@@QAEX$$QAV<lambda_3518db117f0e7cdb002338c5d3c47b6c>@@AAV<lambda_b2ea41f6bbb362cd97d94c6828d90b61>@@$$QAV<lambda_abdedf541bb04549bc734292b4a045d4>@@@Z 10026300     libucrt:per_thread_data.obj
 0002:00007320       __sehtable$??$?RV<lambda_51b6e8b1eb166f2a3faf91f424b38130>@@AAV<lambda_6250bd4b2a391816dd638c3bf72b0bcb>@@V<lambda_0b5a4a3e68152e1d9b943535f5f47bed>@@@?$__crt_seh_guarded_call@X@@QAEX$$QAV<lambda_51b6e8b1eb166f2a3faf91f424b38130>@@AAV<lambda_6250bd4b2a391816dd638c3bf72b0bcb>@@$$QAV<lambda_0b5a4a3e68152e1d9b943535f5f47bed>@@@Z 10026320     libucrt:per_thread_data.obj
 0002:00007340       __sehtable$??$?RV<lambda_5b71d36f03204c0beab531769a5b5694>@@AAV<lambda_be2b3da3f62db62e9dad5dc70221a656>@@V<lambda_8f9ce462984622f9bf76b59e2aaaf805>@@@?$__crt_seh_guarded_call@X@@QAEX$$QAV<lambda_5b71d36f03204c0beab531769a5b5694>@@AAV<lambda_be2b3da3f62db62e9dad5dc70221a656>@@$$QAV<lambda_8f9ce462984622f9bf76b59e2aaaf805>@@@Z 10026340     libucrt:per_thread_data.obj
 0002:00007360       __sehtable$___acrt_uninitialize_locale 10026360     libucrt:wsetlocale.obj
 0002:00007380       __sehtable$_fflush         10026380     libucrt:fflush.obj
 0002:000073a0       __sehtable$_common_flush_all 100263a0     libucrt:fflush.obj
 0002:000073c8       __sehtable$??$?RV<lambda_d92cfe8357b99225085016881b624cb0>@@AAV<lambda_b721fa326cdb32351d23dfa67958c160>@@V<lambda_42d75b0848218ec137fa420c8ba9fdf9>@@@?$__crt_seh_guarded_call@H@@QAEH$$QAV<lambda_d92cfe8357b99225085016881b624cb0>@@AAV<lambda_b721fa326cdb32351d23dfa67958c160>@@$$QAV<lambda_42d75b0848218ec137fa420c8ba9fdf9>@@@Z 100263c8     libucrt:setvbuf.obj
 0002:000073e8       __sehtable$_raise          100263e8     libucrt:signal.obj
 0002:00007408       __sehtable$??$?RV<lambda_a048d3beccc847880fc8490e18b82769>@@AAV<lambda_ec61778202f4f5fc7e7711acc23c3bca>@@V<lambda_f7496a158712204296dd6628a163878e>@@@?$__crt_seh_guarded_call@P6AXH@Z@@QAEP6AXH@Z$$QAV<lambda_a048d3beccc847880fc8490e18b82769>@@AAV<lambda_ec61778202f4f5fc7e7711acc23c3bca>@@$$QAV<lambda_f7496a158712204296dd6628a163878e>@@@Z 10026408     libucrt:signal.obj
 0002:00007428       __sehtable$___acrt_update_thread_multibyte_data 10026428     libucrt:mbctype.obj
 0002:00007448       __sehtable$??$?RV<lambda_978dc153c237d78434369da87b74ff60>@@AAV<lambda_ad1ced32f4ac17aa236e5ef05d6b3b7c>@@V<lambda_4a8533e2866a575feecb8298ce776b0d>@@@?$__crt_seh_guarded_call@X@@QAEX$$QAV<lambda_978dc153c237d78434369da87b74ff60>@@AAV<lambda_ad1ced32f4ac17aa236e5ef05d6b3b7c>@@$$QAV<lambda_4a8533e2866a575feecb8298ce776b0d>@@@Z 10026448     libucrt:mbctype.obj
 0002:00007468       __sehtable$___acrt_initialize_lowio 10026468     libucrt:ioinit.obj
 0002:00007488       __sehtable$___acrt_update_thread_locale_data 10026488     libucrt:locale_refcounting.obj
 0002:000074a8       __sehtable$__fcloseall     100264a8     libucrt:closeall.obj
 0002:000074c8       __sehtable$??$?RV<lambda_61cee617f5178ae960314fd4d05640a0>@@AAV<lambda_6978c1fb23f02e42e1d9e99668cc68aa>@@V<lambda_9cd88cf8ad10232537feb2133f08c833>@@@?$__crt_seh_guarded_call@H@@QAEH$$QAV<lambda_61cee617f5178ae960314fd4d05640a0>@@AAV<lambda_6978c1fb23f02e42e1d9e99668cc68aa>@@$$QAV<lambda_9cd88cf8ad10232537feb2133f08c833>@@@Z 100264c8     libucrt:commit.obj
 0002:000074e8       __sehtable$__write         100264e8     libucrt:write.obj
 0002:00007508       __sehtable$___acrt_lowio_ensure_fh_exists 10026508     libucrt:osfinfo.obj
 0002:00007528       __sehtable$_fclose         10026528     libucrt:fclose.obj
 0002:00007548       __sehtable$??$common_lseek@_J@@YA_JH_JH@Z 10026548     libucrt:lseek.obj
 0002:00007568       __sehtable$??$?RV<lambda_123407a5e2ac06da108355a851863b7a>@@AAV<lambda_2fe9b910cf3cbf4a0ab98a02ba45b3ec>@@V<lambda_ae55bdf541ad94d75914d381c370e64d>@@@?$__crt_seh_guarded_call@H@@QAEH$$QAV<lambda_123407a5e2ac06da108355a851863b7a>@@AAV<lambda_2fe9b910cf3cbf4a0ab98a02ba45b3ec>@@$$QAV<lambda_ae55bdf541ad94d75914d381c370e64d>@@@Z 10026568     libucrt:close.obj
 0002:00007588       __sehtable$__IsNonwritableInCurrentImage 10026588     LIBCMT:pesect.obj
 0002:000075b0       .edata                     100265b0     sql_addon.exp
 0002:000075d8       rgpv                       100265d8     sql_addon.exp
 0002:000075dc       rgszName                   100265dc     sql_addon.exp
 0002:000075e0       rgwOrd                     100265e0     sql_addon.exp
 0002:000075e2       szName                     100265e2     sql_addon.exp
 0002:000075f1       $N00001                    100265f1     sql_addon.exp
 0002:00007998       .idata$6                   10026998     kernel32:KERNEL32.dll
 0002:00008e64       .idata$6                   10027e64     iojs:node.dll
 0002:0000916c       .idata$6                   1002816c     sqlite3:sqlite3.dll
 0003:00000010       ?__vcrt_flsindex@@3KA      10029010     libvcruntime:per_thread_data.obj
 0003:00000034       _errno_no_memory           10029034     libucrt:errno.obj
 0003:00000038       _doserrno_no_memory        10029038     libucrt:errno.obj
 0003:0000003c       ___acrt_flsindex           1002903c     libucrt:per_thread_data.obj
 0003:000001b0       ___rgctypeflag             100291b0     libucrt:mbctype.obj
 0003:000001b8       ___rgcode_page_info        100291b8     libucrt:mbctype.obj
 0003:00000790       __module                   10029790     node_sqlite3.obj
 0003:000008a0       ?module_local_atexit_table@@3U_onexit_table_t@@A 100298a0     LIBCMT:utility.obj
 0003:000008ac       ?module_local_at_quick_exit_table@@3U_onexit_table_t@@A 100298ac     LIBCMT:utility.obj
 0003:000008b8       ?is_initialized_as_dll@@3_NA 100298b8     LIBCMT:utility.obj
 0003:000008bc       ?__proc_attached@@3HA      100298bc     LIBCMT:dll_dllmain.obj
 0003:000008c0       _GS_ExceptionRecord        100298c0     LIBCMT:gs_report.obj
 0003:00000910       _GS_ContextRecord          10029910     LIBCMT:gs_report.obj
 0003:00000c00       ?__vcrt_startup_thread_ptd@@3U__vcrt_ptd@@A 10029c00     libvcruntime:per_thread_data.obj
 0003:00000c28       ___vcrt_lock_table         10029c28     libvcruntime:locks.obj
 0003:00000c40       ___vcrt_locks_initialized  10029c40     libvcruntime:locks.obj
 0003:00000c44       ?module_handles@@3PAPAUHINSTANCE__@@A 10029c44     libvcruntime:winapi_downlevel.obj
 0003:00000c54       ?encoded_function_pointers@@3PAPAXA 10029c54     libvcruntime:winapi_downlevel.obj
 0003:00000ca4       ?heap@@3V_HeapManager@@A   10029ca4     libvcruntime:undname.obj
 0003:00000cb8       ___acrt_invalid_parameter_handler 10029cb8     libucrt:invalid_parameter.obj
 0003:00000cbc       ___acrt_new_handler        10029cbc     libucrt:new_handler.obj
 0003:00000cc0       _c_termination_complete    10029cc0     libucrt:exit.obj
 0003:00000cc4       _thread_local_exit_callback_func 10029cc4     libucrt:exit.obj
 0003:00000cc8       ?c_exit_complete@?5??common_exit@@YAXHW4_crt_exit_cleanup_mode@@W4_crt_exit_return_mode@@@Z@4_NA 10029cc8     libucrt:exit.obj
 0003:00000cd0       ?program_name@?5???$common_configure_argv@D@@YAHW4_crt_argv_mode@@@Z@4PADA 10029cd0     libucrt:argv_parsing.obj
 0003:00000e08       ___acrt_app_type           10029e08     libucrt:report_runtime_error.obj
 0003:00000e0c       ___acrt_error_mode         10029e0c     libucrt:set_error_mode.obj
 0003:00000e1c       _ctrlc_action              10029e1c     libucrt:signal.obj
 0003:00000e20       _ctrlbreak_action          10029e20     libucrt:signal.obj
 0003:00000e24       _abort_action              10029e24     libucrt:signal.obj
 0003:00000e28       _term_action               10029e28     libucrt:signal.obj
 0003:00000e30       ___acrt_lock_table         10029e30     libucrt:locks.obj
 0003:00000f68       ___acrt_locks_initialized  10029f68     libucrt:locks.obj
 0003:00000f70       _module_handles            10029f70     libucrt:winapi_thunks.obj
 0003:00000fc0       _encoded_function_pointers 10029fc0     libucrt:winapi_thunks.obj
 0003:00001040       ?state_cache@?1??__acrt_is_packaged_app@@9@4JA 1002a040     libucrt:winapi_thunks.obj
 0003:0000105c       _fSystemSet                1002a05c     libucrt:mbctype.obj
 0003:00001060       ?initialized@?1??__acrt_initialize_multibyte@@9@4_NA 1002a060     libucrt:mbctype.obj
 0003:00001284       _user_matherr              1002a284     libucrt:matherr.obj
 0003:00001290       ___acrt_global_new_mode    1002a290     libucrt:new_mode.obj
 0003:00001294       _enable_percent_n          1002a294     libucrt:printf_count_output.obj
 0003:000012a4       __pmatherr_set             1002a2a4     libucrt:libm_error.obj
 0004:00000000       __guard_fids____dcrt_uninitialize_environments_nolock 1002b000     libucrt:environment_initialization.obj
 0004:00000008       __guard_fids__             1002b008     libucrt:initialization.obj
 0004:00000068       __guard_fids____acrt_initialize_ptd 1002b068     libucrt:per_thread_data.obj
 0004:0000006c       __guard_fids_??$common_show_message_box@_W@@YAHQB_W0I@Z 1002b06c     libucrt:crtmbox.obj
 0004:00000070       __guard_fids_??$expand_argument_wildcards@D@@YAHQAD0AAV?$argument_list@D@?A0xb0e4b824@@@Z 1002b070     libucrt:argv_wildcards.obj
 0004:00000074       __guard_fids__             1002b074     libucrt:locale_initializer.obj
 0004:00000078       __guard_fids__             1002b078     libucrt:stdio_initializer.obj
 0004:0000007c       __guard_fids__             1002b07c     libucrt:stdio_initializer.obj
 0004:00000080       __guard_fids__             1002b080     libucrt:multibyte_initializer.obj
 0004:00000084       __guard_fids____libm_error_support 1002b084     libucrt:libm_error.obj
 0004:00000088       __guard_fids__             1002b088     libucrt:console_output_initializer.obj
 0004:0000008c       __guard_fids__             1002b08c     libucrt:sse2_initializer.obj
 0004:00000090       __guard_fids__             1002b090     libcpmt:xthrow.obj
 0004:00000098       __guard_fids__             1002b098     libcpmt:xthrow.obj
 0004:000000a0       __guard_fids__             1002b0a0     libcpmt:xthrow.obj
 0004:000000a8       __guard_fids__             1002b0a8     libcpmt:xthrow.obj
 0004:000000b0       __guard_fids__             1002b0b0     libcpmt:xthrow.obj
 0004:000000b8       __guard_fids__             1002b0b8     libcpmt:xthrow.obj
 0004:000000bc       __guard_fids__             1002b0bc     libcpmt:xthrow.obj
 0004:000000c0       __guard_fids__             1002b0c0     libcpmt:xthrow.obj
 0004:000000c4       __guard_fids__             1002b0c4     libcpmt:xthrow.obj
 0004:000000c8       __guard_fids__             1002b0c8     libcpmt:xthrow.obj
 0004:000000cc       __guard_fids__             1002b0cc     libcpmt:xthrow.obj
 0004:000000d0       __guard_fids__             1002b0d0     libcpmt:xthrow.obj
 0004:000000d4       __guard_fids__             1002b0d4     libcpmt:xthrow.obj
 0004:000000d8       __guard_fids_?dllmain_crt_process_attach@@YAHQAUHINSTANCE__@@QAX@Z 1002b0d8     LIBCMT:dll_dllmain.obj
 0004:000000e0       __guard_fids_?dllmain_dispatch@@YAHQAUHINSTANCE__@@KQAX@Z 1002b0e0     LIBCMT:dll_dllmain.obj
 0004:000000e4       __guard_fids__             1002b0e4     LIBCMT:std_type_info_static.obj
 0004:000000e8       __guard_fids__             1002b0e8     LIBCMT:throw_bad_alloc.obj
 0004:000000f0       __guard_fids__             1002b0f0     LIBCMT:throw_bad_alloc.obj
 0004:000000f4       __guard_fids__             1002b0f4     LIBCMT:throw_bad_alloc.obj
 0004:000000f8       __guard_fids__             1002b0f8     LIBCMT:guard_support.obj
 0004:000000fc       __guard_fids____vcrt_initialize_ptd 1002b0fc     libvcruntime:per_thread_data.obj
 0005:00000060       $R000000                   1002c060     * linker generated manifest res *

 Exports

  ordinal    name

        1    __register_node_sqlite3_
               exported name: _register_node_sqlite3_
